(dp0
I0
(dp1
Vand
p2
F-1.80144008694
sVmotherboard
p3
F-0.210876661228
sVit
p4
F-1.75476714038
sVan
p5
F-0.67383081634200004
sVat
p6
F-0.91421334862900006
sVinstal
p7
F-0.51703200520899995
sVeasi
p8
F-0.026241505757699998
sVto
p9
F-1.7781567783900001
sV2
p10
F-0.54486983712000003
sV4
p11
F-0.18749621258400001
sVgot
p12
F0.072612532963700002
sVbought
p13
F-0.0462546815335
sVrun
p14
F-0.63918803818699998
sVveri
p15
F-0.72348640678800002
sVwith
p16
F-1.5186699304
sVglad
p17
F2.39207566375
sVnone
p18
F-0.87010417925600003
sVasrock
p19
F1.7240644564600001
sVi
p20
F-1.77727987381
sVghz
p21
F1.7024808847899999
sVthi
p22
F-1.52757773055
sVoverclock
p23
F0.228508109412
ssI1
(dp24
Vall
p25
F-0.724115337626
sVjust
p26
F-0.64838585469200005
sVnom
p27
F15.405567702968007
sVis
p28
F-1.4955383767999999
sVit
p29
F-3.6825758845524668
sV60
p30
F2.06272089489
sVsee
p31
F0.39289848550799999
sVar
p32
F-0.78627363122299998
sVat
p33
F-0.91421334862900006
sVdual
p34
F1.11035410654
sVneed
p35
F-0.30168858010999999
sVif
p36
F-0.78833944278900003
sVbetter
p37
F0.25660913202500002
sVonli
p38
F-0.436538048535
sVcruddi
p39
F6.2422232654599998
sVfrom
p40
F-0.535043605373
sVtdp
p41
F4.1219597292600003
sVno
p42
F-0.86192082753199994
sVwith
p43
F-1.5186699304
sVha
p44
F-0.45316353538100002
sVdinner
p45
F5.1436109767899998
sVbeen
p46
F0.081719426026199998
sVfor
p47
F-1.61667495617
sVeverybodi
p48
F4.6327853530200001
sVother
p49
F-0.316919717012
sVglad
p50
F2.39207566375
sVwouldn
p51
F1.58193378025
sVt
p52
F-1.10765043928
sV9
p53
F1.51483544674
sVghz
p54
F1.7024808847899999
sVshe
p55
F3.3895918355400001
sVfp
p56
F2.1991719976200002
sVcore
p57
F0.74857595812880573
sVlife
p58
F2.1933410773099999
sVwoman
p59
F6.2422232654599998
sVthat
p60
F-1.2350038327299999
sVi3
p61
F1.9426728526099999
sVnever
p62
F0.40741252839300002
sVwatch
p63
F2.6680067196600001
sVmake
p64
F-0.20613856339299999
sVme
p65
F-0.31974990757999999
sVsrsly
p66
F7.3408355541199999
sVgame
p67
F0.20993672382699999
sVhyperthread
p68
F4.6327853530200001
sVbottleneck
p69
F4.2053413381900002
sVcome
p70
F0.15772385238
sVeat
p71
F4.2497931007599998
sVthose
p72
F1.16704945022
sVlonger
p73
F1.6337252893700001
sVa
p74
F-3.1036205285345009
sVon
p75
F-1.54058399738
sVsister
p76
F4.5682468318799998
sVheatsink
p77
F0.66123636827900001
sVlike
p78
F-0.49038466048099999
sVp4
p79
F3.4090099214
sg20
F-3.7298213835801737
sVcould
p80
F0.15696483906100001
sVplai
p81
F0.86079099219699995
sVus
p82
F-0.85090446715400003
sVface
p83
F2.4733011036699999
sVyoutub
p84
F3.93963817246
sVs
p85
F-0.95845035277400004
sVher
p86
F3.57963543843
sVso
p87
F-0.93352145263300002
sVcan
p88
F-1.4368796086187978
sV73w
p89
F6.2422232654599998
sg10
F-0.54486983712000003
sVthe
p90
F-1.8756856769300001
sVmy
p91
F-1.3701135717099999
sVprocessor
p92
F1.5101961259746344
sVcame
p93
F0.73689172952299997
sVcon
p94
F0.71809923017300004
ssI2
(dp95
Vit
p96
F-1.75476714038
sVsee
p97
F0.39289848550799999
sVhave
p98
F-1.2300879597100001
sVfor
p99
F-1.61667495617
sVfast
p100
F0.39964549905500002
sVto
p101
F-1.7781567783900001
sVenough
p102
F0.44111244683799999
sg52
F-1.10765043928
sVfree
p103
F1.41390952815
sVreason
p104
F1.0004762504
sVuser
p105
F2.0081167608600001
sVnot
p106
F-1.2455104959800001
sVthan
p107
F-0.31550161230700002
sVaverag
p108
F2.02271556028
sVfaster
p109
F1.8643720021900001
sg74
F-3.1036205285345009
sVdon
p110
F0.0012978587156000001
sVpretti
p111
F0.46147974966299998
sg85
F-0.95845035277400004
sVgamer
p112
F2.3038829517099999
sVmore
p113
F-0.41707065422799999
sVprocessor
p114
F1.5101961259746344
ssI3
(dp115
g74
F-1.8330482808399999
sVnone
p116
F-0.87010417925600003
sVt5
p117
F5.7313976416900001
sVdump
p118
F4.5682468318799998
sVwa
p119
F-1.02413842432
sg20
F-1.77727987381
sVwork
p120
F-1.0382443351599999
sVgreat
p121
F-0.82906709323600003
sVus
p122
F-0.85090446715400003
sVxe
p123
F6.2422232654599998
sVboard
p124
F-0.30216808143700002
sVbiostar
p125
F2.0885621260799998
sVcfx
p126
F5.3949254050700004
sVtook
p127
F1.1403263800800001
sVthe
p128
F-1.8756856769300001
sVuntil
p129
F1.39541494552
sVsli
p130
F1.1064248284
ssI4
(dp131
Vload
p132
F0.55751035351900002
sVcomput
p133
F0.102338713229
sVie8
p134
F6.6476883735600003
sVbump
p135
F3.0101022138400002
sVis
p136
F-1.4955383767999999
sVcheap
p137
F0.24163381057
sVmine
p138
F1.5177896586399999
sV2nd
p139
F2.4656382309199998
sVglitch
p140
F4.0827390160999997
sVunlock
p141
F4.0027723170365137
sVbiostar
p142
F2.0885621260799998
sVguarante
p143
F4.3963965749599998
sVshot
p144
F3.53417306435
sVsever
p145
F1.6606629451099999
sVout
p146
F-0.60966688068599995
sV20
p147
F1.46871776465
sV140
p148
F3.53417306435
sVsecond
p149
F0.89988901348999994
sVno
p150
F-0.86192082753199994
sVchrome
p151
F4.0827390160999997
sVanoth
p152
F0.42809273363
sVextra
p153
F0.96751576454599997
sVbest
p154
F0.772757642711
sVfor
p155
F-1.61667495617
sValso
p156
F0.100902962803
sVfigur
p157
F1.6675122869500001
sVwon
p158
F1.28639620785
sVbuild
p159
F-0.027504132188100001
sVworth
p160
F1.0548374596100001
sVnewegg
p161
F0.22444141003000001
sVcore
p162
F0.74857595812880573
sV145
p163
F6.2422232654599998
sVrun
p164
F-0.63918803818699998
sVwa
p165
F-2.1492694825751473
sVget
p166
F-0.72348640678800002
sVbut
p167
F-1.2736658197599999
sValong
p168
F2.0885621260799998
sVsempron
p169
F4.8559289043399998
sVwith
p170
F-1.5186699304
sVproblem
p171
F-0.26405892668800002
sVgoogl
p172
F3.1977008277299999
sg74
F-3.1036205285345009
sVon
p173
F-1.54058399738
sV880g
p174
F4.2497931007599998
sVd
p175
F0.71809923017300004
sg20
F-4.2411129410046744
sVup
p176
F-0.62679118521099997
sVflake
p177
F5.7313976416900001
sVspend
p178
F1.83550401819
sg52
F-1.10765043928
sVw
p179
F1.7060459509499999
sVthe
p180
F-4.4759381540914047
sVmy
p181
F-1.3701135717099999
sVother
p182
F-0.316919717012
ssI5
(dp183
Vand
p184
F-1.80144008694
sVpentium
p185
F2.5450450085299998
sVdoesn
p186
F0.50996131947699996
sVin
p187
F-1.4189900411900001
sVseem
p188
F0.40546510810800002
sVhuge
p189
F1.2724099658800001
sVfrom
p190
F-0.535043605373
sVperform
p191
F0.44111244683799999
sVlightn
p192
F4.1627817237800002
sVupgrad
p193
F0.78122031663000002
sVfast
p194
F0.39964549905500002
sVto
p195
F-1.7781567783900001
sg11
F-0.18749621258400001
sVmore
p196
F-0.41707065422799999
sVfunction
p197
F2.0178255749799998
sVeveri
p198
F1.19236725821
sVwa
p199
F-1.02413842432
sVdai
p200
F0.61580191195599998
sVgame
p201
F0.20993672382699999
sVsandwhich
p202
F7.3408355541199999
sVnow
p203
F-0.0122463663922
sg74
F-3.1036205285345009
sVus
p204
F-1.4407064994876577
sVprior
p205
F3.3518515075600002
sg52
F-1.10765043928
sVthi
p206
F-1.52757773055
sVeveryth
p207
F0.25828698476799999
sVprocessor
p208
F0.89194615997600002
sVinclud
p209
F0.69574458461800004
ssI6
(dp210
Vand
p211
F-3.7805243037516325
sVa880gu3
p212
F6.6476883735600003
sVhyper
p213
F2.1204797290399999
sV212
p214
F2.3235557173100001
sVcm
p215
F2.9100187552799999
sVis
p216
F-1.4955383767999999
sVam
p217
F0.47807764107200001
sVit
p218
F-4.1873909321672702
sV2nd
p219
F2.4656382309199998
sVunlock
p220
F4.0027723170365137
sV130
p221
F4.2497931007599998
sVbiostar
p222
F2.0885621260799998
sVhave
p223
F-1.2300879597100001
sVstabl
p224
F0.95227414857799997
sVkeep
p225
F0.35426909471700002
sVif
p226
F-0.78833944278900003
sVtry
p227
F0.71809923017300004
sVwhat
p228
F-0.135636827041
sVhow
p229
F0.68539520375600005
sVgoe
p230
F1.8812500399800001
sVprime
p231
F3.1819524707600002
sVto
p232
F-1.7781567783900001
sVmuch
p233
F0.1030573622
sVboard
p234
F-0.30216808143700002
sVunder
p235
F0.84104851346700005
sVar
p236
F-0.78627363122299998
sVworth
p237
F1.0548374596100001
sVcore
p238
F0.442121019793
sVnon
p239
F1.8153826149900001
sVsure
p240
F0.50888198855699995
sVrun
p241
F-0.63918803818699998
sVwith
p242
F-3.6239934913158569
sVbf3
p243
F2.1590520038299998
sVamd
p244
F1.171405576956096
sVbut
p245
F-1.2736658197599999
sVbeta
p246
F3.2977842862900002
sVspare
p247
F2.3710222545500002
sVoem
p248
F2.49664846766
sV30
p249
F1.5001938967499999
sVnot
p250
F-1.2455104959800001
sValong
p251
F2.0885621260799998
sVan
p252
F-0.67383081634200004
sV95
p253
F2.9713877016599999
sg74
F-3.1036205285345009
sVstress
p254
F2.6587043270000001
sVtemp
p255
F0.61700311330199997
sg20
F-3.009196407407337
sVwork
p256
F-1.0382443351599999
sVwell
p257
F-0.33378194324100002
sVsee
p258
F0.39289848550799999
sVorder
p259
F0.86848925962199996
sVwill
p260
F-0.44861901196300003
sVidl
p261
F1.0236708673799999
sVwithout
p262
F0.48753646093699998
sVcan
p263
F-0.68468083236599997
sVthi
p264
F-1.52757773055
sVthe
p265
F-4.8944853171907621
sVcpu
p266
F-0.31455509070299997
ssI7
(dp267
Vand
p268
F-1.80144008694
sVgfx
p269
F4.3451032805700001
sV3ghz
p270
F2.9463863994500001
sVsome
p271
F-0.14521706374000001
sVwatt
p272
F1.7763151468
sVthrough
p273
F1.08316796624
sVin
p274
F-1.4189900411900001
sVseem
p275
F0.40546510810800002
sVno
p276
F-0.86192082753199994
sV95
p277
F2.9713877016599999
sVlittl
p278
F0.13223521616299999
sVskimpi
p279
F5.3949254050700004
sV3
p280
F-0.53047564920000001
sV6
p281
F0.59090436033500005
sVtest
p282
F1.0182703142
sVcore
p283
F0.442121019793
sVhead
p284
F2.7764873626600002
sVburn
p285
F2.1258997965100002
sVrun
p286
F-0.63918803818699998
sVplenti
p287
F0.96581073429499997
sVawait
p288
F4.9429402813200003
sVbefor
p289
F0.64627349560199998
sVheat
p290
F1.1238299846437625
sVsink
p291
F1.5570103717899999
sVfootprint
p292
F4.1219597292600003
sVwith
p293
F-1.5186699304
sVcard
p294
F-0.31408149372499999
sg74
F-1.8330482808399999
sVroom
p295
F0.66880260866200003
sg20
F-1.77727987381
sVof
p296
F-1.58235593656
sVpipe
p297
F2.6046371057300002
sVtech
p298
F1.8314472175000001
sVcan
p299
F-0.68468083236599997
sVzambezi
p300
F6.2422232654599998
sVthe
p301
F-1.8756856769300001
sVcpu
p302
F-0.31455509070299997
ssI8
(dp303
Vnone
p304
F-0.87010417925600003
sg20
F-1.77727987381
sVfast
p305
F0.39964549905500002
sVblaze
p306
F4.3963965749599998
sVever
p307
F0.989949837409
sVcpu
p308
F-0.31455509070299997
sVbest
p309
F0.772757642711
sVbought
p310
F-0.0462546815335
ssI9
(dp311
g74
F-1.8330482808399999
sVon
p312
F-1.54058399738
sVgreat
p313
F-1.4037326114075628
sVfor
p314
F-2.7372686439211087
sVno
p315
F-0.86192082753199994
sVnada
p316
F4.0827390160999997
sVwork
p317
F-1.0382443351599999
sVit
p318
F-1.75476714038
sVup
p319
F-0.62679118521099997
sV99
p320
F2.4733011036699999
sVpick
p321
F2.0425181875799998
sVprice
p322
F-0.52741871139700003
sVproblem
p323
F-0.26405892668800002
sVhtpc
p324
F1.5787841713399999
sVmy
p325
F-1.3701135717099999
sVmojo
p326
F6.6476883735600003
sVchip
p327
F1.39541494552
sVsale
p328
F2.2974104371999999
ssI10
(dp329
Vwork
p330
F-1.0382443351599999
sVonc
p331
F1.1987981485400001
sVfront
p332
F0.53622103406099997
sVseem
p333
F0.40546510810800002
sVport
p334
F0.71677032632299997
sVsize
p335
F0.99519919329499995
sVcut
p336
F1.88551443877
sVusb
p337
F0.63519645926299995
sVeasi
p338
F-0.026241505757699998
sVdecent
p339
F1.1162771248500001
sVto
p340
F-3.0106811359245844
sg10
F-0.54486983712000003
sVinclud
p341
F0.69574458461800004
sVfan
p342
F-0.99531526199700004
sVtogeth
p343
F1.83550401819
sVput
p344
F0.35334530712200002
sVwith
p345
F-1.5186699304
sVon
p346
F-1.54058399738
sVmyself
p347
F2.3641018116999999
sVdon
p348
F0.0012978587156000001
sVdidn
p349
F0.52191148884799998
sg52
F-1.8754152183129169
sVthe
p350
F-3.1758119155107023
sVaudio
p351
F1.78400749242
ssI11
(dp352
Vand
p353
F-1.80144008694
sVud3
p354
F3.3705436405700002
sVpurchas
p355
F0.56318896048800005
sVcabl
p356
F0.083127876963199995
sVbe
p357
F-0.92094912539100005
sVmotherboard
p358
F-0.210876661228
sVram
p359
F-0.0058196090532599996
sVvideo
p360
F0.39385956198799998
sVga
p361
F2.4580336315400002
sVsuppli
p362
F0.23833619834899999
sVskill
p363
F1.45751316563
sVhhd
p364
F4.7758861966600001
sVout
p365
F-0.60966688068599995
sVblue
p366
F1.6694164721677305
sVevga
p367
F1.43547370607
sVinsid
p368
F1.22936821462
sVfor
p369
F-1.61667495617
sVno
p370
F-0.86192082753199994
sVtop
p371
F1.2822762080716463
sV2tb
p372
F2.8190469770700002
sV650w
p373
F3.57963543843
sVantec
p374
F1.0947287886399999
sV2600k
p375
F1.76488645098
sVbehind
p376
F2.06272089489
sVblack
p377
F0.82021442656499999
sVddr3
p378
F0.95564115512600001
sVgtx
p379
F1.27009782612
sVpsu
p380
F0.28638589598999997
sVspec
p381
F1.4603025677200001
sVmatch
p382
F1.8643720021900001
sg74
F-1.8330482808399999
sVled
p383
F1.058909975159418
sVpower
p384
F-0.86292537377924916
sVthat
p385
F-1.2350038327299999
sV560
p386
F2.6494876718899998
sV8gb
p387
F1.4059413585
sVi5
p388
F1.13627779155
sVz68xp
p389
F4.8559289043399998
sVfan
p390
F-2.0887808399258239
sVfront
p391
F0.90790113197732059
sVcore
p392
F0.442121019793
sVgeforc
p393
F2.18178025491
sVcard
p394
F-0.31408149372499999
sVusb
p395
F0.63519645926299995
sVcase
p396
F-0.88894219595900004
sVon
p397
F-2.6084354515797172
sVairflow
p398
F1.17962823243
sVintel
p399
F0.33504653487000002
sVg
p400
F1.3568992734400001
sVmb
p401
F1.16913495671
sg20
F-1.77727987381
sVof
p402
F-1.58235593656
sVmount
p403
F0.47286114515299998
sVbottom
p404
F1.27009782612
sVdrive
p405
F-0.13280155437300001
sV1gb
p406
F2.2288477657699999
sVwill
p407
F-0.44861901196300003
sVcan
p408
F-0.68468083236599997
sVgigabyt
p409
F1.2052706630400001
sVthe
p410
F-3.9363370112840608
sVmanag
p411
F1.0623141299600001
sVbai
p412
F1.3518741372300001
ssI12
(dp413
Vand
p414
F-1.80144008694
sVdont
p415
F1.6238078527199999
sVreplac
p416
F0.12854108562300001
sVis
p417
F-1.4955383767999999
sVit
p418
F-1.75476714038
sVinsid
p419
F1.22936821462
sVcase
p420
F-0.88894219595900004
sValreadi
p421
F1.5570103717899999
sVsuppli
p422
F0.23833619834899999
sVpower
p423
F-0.50965762674799997
sVfor
p424
F-1.61667495617
sVhad
p425
F-0.75811119482
sVto
p426
F-1.7781567783900001
sg280
F-0.53047564920000001
sVlot
p427
F0.19959043177300001
sV7750
p428
F6.2422232654599998
sVnice
p429
F-0.29639883466599998
sVdo
p430
F-0.21402296691700001
sVgood
p431
F-0.71812446364600002
sVkuma
p432
F6.2422232654599998
sVwa
p433
F-1.02413842432
sVthat
p434
F-1.2350038327299999
sVbut
p435
F-1.2736658197599999
sVbui
p436
F-0.170689094268
sVplan
p437
F1.68834637385
sV0ghz
p438
F3.0641694351100002
sVcool
p439
F-0.36217212835599999
sg74
F-1.8330482808399999
sVon
p440
F-1.54058399738
sVroom
p441
F0.66880260866200003
sg20
F-1.77727987381
sVof
p442
F-1.58235593656
sVkeep
p443
F0.35426909471700002
sVthe
p444
F-1.8756856769300001
sVmy
p445
F-1.3701135717099999
ssI13
(dp446
Vand
p447
F-1.80144008694
sVwww
p448
F3.5121941576300002
sVcabl
p449
F0.083127876963199995
sVextra
p450
F0.96751576454599997
sVmotherboard
p451
F-0.210876661228
sVitem
p452
F1.8436673288300001
sVinto
p453
F0.44111244683799999
sVback
p454
F0.078908461420499995
sVfeel
p455
F1.1546269302200001
sVhook
p456
F2.1423385228599998
sVtab
p457
F5.6751779296808165
sVperfect
p458
F1.1712248216300001
sVnewegg
p459
F0.22444141003000001
sVyour
p460
F-0.047492305453800003
sVslot
p461
F0.76574798342219375
sVusb
p462
F1.0754810941028086
sVfor
p463
F-1.61667495617
sVno
p464
F-0.86192082753199994
sVrather
p465
F1.88551443877
sVtop
p466
F0.61101148363400004
sVwhen
p467
F-0.41493161598
sVport
p468
F0.71677032632299997
sValso
p469
F0.100902962803
sg280
F-0.89817334979868668
sVpci
p470
F1.8535369619636202
sVboard
p471
F-0.30216808143700002
sVinstead
p472
F1.2405166021
sVyou
p473
F-1.0306379829400001
sVaspx
p474
F3.8144750295100001
sVworth
p475
F1.0548374596100001
sVcompliment
p476
F5.3949254050700004
sVplug
p477
F1.01468608097
sVproduct
p478
F0.81300166933533713
sVgood
p479
F-0.71812446364600002
sVhttp
p480
F3.4906879524100001
sVthat
p481
F-1.2350038327299999
sVweight
p482
F2.6964446549800001
sVit
p483
F-2.9710790362736348
sVbreak
p484
F2.1258997965100002
sVwrong
p485
F1.59144256822
sVfan
p486
F-0.99531526199700004
sVoff
p487
F0.20993672382699999
sVbe
p488
F-0.92094912539100005
sVha
p489
F-0.45316353538100002
sVwith
p490
F-2.5713317108579283
sVstrang
p491
F3.4288125486999999
sg74
F-5.1174298955872768
sVon
p492
F-2.6084354515797172
sVgreat
p493
F-0.82906709323600003
sVaccident
p494
F3.8144750295100001
sVn82e16811999224
p495
F7.3408355541199999
sVlook
p496
F-0.45645571942399998
sVsolid
p497
F0.82021442656499999
sVof
p498
F-3.7759670486977117
sVsetup
p499
F1.0698471222599999
sVup
p500
F-1.0612497280398312
sVthese
p501
F0.021633095355399999
sVcase
p502
F-0.88894219595900004
sVpick
p503
F2.0425181875799998
sVthe
p504
F-5.5256014721057731
sVcom
p505
F2.52865119875
sVll
p506
F0.88093109974600003
sVpack
p507
F2.3991931315100001
ssI14
(dp508
Vfeatur
p509
F0.79405014336299995
sV0
p510
F1.171405576956096
sVcd
p511
F1.61398780654
sVfront
p512
F0.53622103406099997
sVas
p513
F-0.78833944278900003
sVar
p514
F-0.78627363122299998
sVin
p515
F-1.4189900411900001
sVonli
p516
F-0.436538048535
sVusb
p517
F0.63519645926299995
sVfit
p518
F0.107380135502
sVno
p519
F-0.86192082753199994
sVnot
p520
F-2.6138436325287406
sVtop
p521
F0.61101148363400004
sVdefinit
p522
F1.4943967790699999
sVfor
p523
F-2.7372686439211087
sVconnector
p524
F0.71015216848100005
sVto
p525
F-1.7781567783900001
sg280
F-0.89817334979868668
sg10
F-0.54486983712000003
sV5
p526
F0.043067271591899998
sVnice
p527
F-0.29639883466599998
sVprice
p528
F-0.52741871139700003
sVbut
p529
F-1.2736658197599999
sVextern
p530
F2.3710222545500002
sVwith
p531
F-1.5186699304
sVwhy
p532
F1.2427612719600001
sVroom
p533
F0.66880260866200003
sg74
F-3.1036205285345009
sVwai
p534
F0.78309595465980864
sVdvd
p535
F1.2405166021
sVwork
p536
F-1.0382443351599999
sVdrive
p537
F-0.27869897396140397
sVwill
p538
F-0.44861901196300003
sVbad
p539
F0.98273794779434609
sVimprov
p540
F2.2288477657699999
sVthe
p541
F-3.9363370112840608
sVbai
p542
F1.3518741372300001
ssI15
(dp543
Vand
p544
F-1.80144008694
sVstrudi
p545
F7.3408355541199999
sVnone
p546
F-0.87010417925600003
sVgood
p547
F-0.71812446364600002
sVlook
p548
F-0.45645571942399998
sValuminum
p549
F2.71586274084
sVbe
p550
F-0.92094912539100005
sVcse
p551
F7.3408355541199999
sVmake
p552
F-0.20613856339299999
sVgreat
p553
F-1.4037326114075628
sVit
p554
F-1.75476714038
sVcooler
p555
F0.058074374517699999
sVall
p556
F-0.724115337626
sVhardwar
p557
F1.6205237775200001
sVeveryth
p558
F0.25828698476799999
sVhold
p559
F1.4300389100799999
sVmy
p560
F-1.3701135717099999
ssI16
(dp561
Vand
p562
F-1.80144008694
sVeveryth
p563
F0.25828698476799999
sVweaker
p564
F5.5490760849000003
sVbe
p565
F-0.92094912539100005
sVcolor
p566
F1.4519575957899999
sVis
p567
F-2.5321665860981173
sVbox
p568
F0.60268305952699996
sVdoesn
p569
F0.86343957026711204
sVrealli
p570
F-0.17014219789099999
sVveri
p571
F-0.72348640678800002
sVar
p572
F-0.78627363122299998
sVhave
p573
F-1.2300879597100001
sVgo
p574
F-0.16300519257599999
sVchang
p575
F1.31015029386
sVseem
p576
F0.68651210460849366
sVout
p577
F-0.60966688068599995
sVmonitor
p578
F1.4547315226699999
sVfor
p579
F-1.61667495617
sVhad
p580
F-0.75811119482
sVmid
p581
F1.5326930641400001
sVthan
p582
F-0.31550161230700002
sVto
p583
F-3.0106811359245844
sVantec
p584
F1.0947287886399999
sVmuch
p585
F0.1030573622
sVblack
p586
F0.82021442656499999
sVlarg
p587
F1.2009510019
sVwhite
p588
F2.59590342576
sVnice
p589
F-0.29639883466599998
sVcase
p590
F-1.5051099727687474
sVbut
p591
F-1.2736658197599999
sVfan
p592
F-0.99531526199700004
sVnot
p593
F-1.2455104959800001
sVwith
p594
F-1.5186699304
sVtower
p595
F1.27705034544
sVcool
p596
F-0.36217212835599999
sg74
F-3.1036205285345009
sV900
p597
F2.9841267274300001
sVlook
p598
F-0.45645571942399998
sVorgan
p599
F3.9735397241400001
sg20
F-1.77727987381
sVof
p600
F-1.58235593656
sVwork
p601
F-1.0382443351599999
sVwell
p602
F-0.33378194324100002
sg52
F-1.8754152183129169
sVthe
p603
F-3.9363370112840608
sVmy
p604
F-1.3701135717099999
sVcon
p605
F0.71809923017300004
ssI17
(dp606
Vveri
p607
F-0.72348640678800002
sVand
p608
F-1.80144008694
sVnone
p609
F-0.87010417925600003
sVgood
p610
F-0.71812446364600002
sVcompact
p611
F2.93411630686
ssI18
(dp612
Vall
p613
F-0.724115337626
sVjust
p614
F-0.64838585469200005
sVveri
p615
F-1.518317463969632
sVkill
p616
F5.096546076560446
sVstill
p617
F0.15392403965443927
sVfine
p618
F0.45124424576900002
sVslot
p619
F0.45226309455800001
sVonli
p620
F-0.436538048535
sVcut
p621
F1.88551443877
sVeasi
p622
F-0.026241505757699998
sVnifti
p623
F4.7758861966600001
sVpoint
p624
F1.4300389100799999
sVlittl
p625
F0.13223521616299999
sVshould
p626
F0.45022643397599998
sVbetter
p627
F0.25660913202500002
sVto
p628
F-4.6399897117825475
sVwindow
p629
F0.45430391159299999
sVjam
p630
F4.4504637962300002
sVbuyer
p631
F3.4906879524100001
sVspeaker
p632
F3.0101022138400002
sVcase
p633
F-1.5051099727687474
sVread
p634
F0.96751576454599997
sVmention
p635
F1.8560386206299999
sVfan
p636
F-1.6852152296185039
sVjack
p637
F3.2803925435800001
sVfront
p638
F1.1253200515227357
sVbit
p639
F0.40741252839300002
sVcolor
p640
F1.4519575957899999
sg175
F0.71809923017300004
sVdim
p641
F4.2497931007599998
sVlike
p642
F-0.49038466048099999
sV50
p643
F1.57251455833
sVtry
p644
F0.71809923017300004
sVbad
p645
F0.98273794779434609
sVadjust
p646
F2.0032974744200001
sVeither
p647
F1.45751316563
sVside
p648
F0.47286114515299998
sVright
p649
F0.42412053376999997
sVcabl
p650
F0.083127876963199995
sVsome
p651
F-0.30475431448906426
sVdirect
p652
F2.1933410773099999
sVfail
p653
F1.2609023590299999
sVport
p654
F0.71677032632299997
sVanalog
p655
F4.1219597292600003
sVdial
p656
F9.4597513627262071
sVwire
p657
F1.18810285942
sVfor
p658
F-2.7372686439211087
sVreview
p659
F0.90977927657381163
sVre
p660
F0.81141671586099995
sg280
F-0.53047564920000001
sVit
p661
F-4.1873909321672702
sVgot
p662
F0.072612532963700002
sVtold
p663
F2.57015092966
sVcord
p664
F3.7434414756875971
sVbe
p665
F-0.92094912539100005
sVmonster
p666
F3.44901525601
sVdiffer
p667
F0.70488899843700004
sVgentl
p668
F4.7758861966600001
sVput
p669
F0.35334530712200002
sV100
p670
F1.3644846448300001
sVby
p671
F0.37315470796811723
sVon
p672
F-3.2330885086271075
sVabout
p673
F-0.23628637675299999
sVpretti
p674
F0.96846707361425488
sVof
p675
F-3.7759670486977117
sVquiet
p676
F-0.36414438440843305
sg85
F-0.95845035277400004
sVos
p677
F2.0178255749799998
sVthink
p678
F0.45328298245900001
sVblock
p679
F2.16468582155
sVfirst
p680
F0.10883406396948435
sVcontrol
p681
F0.69574458461800004
sVlove
p682
F0.85467476517899998
sVextra
p683
F0.96751576454599997
sVfeel
p684
F1.954953331500578
sVlabor
p685
F5.2613940124400003
sVflimsi
p686
F4.5547264526362659
sVwai
p687
F0.78309595465980864
sVplastic
p688
F1.5237243941600001
sVdoor
p689
F4.5075646411670025
sVbut
p690
F-3.5557686129470931
sVidea
p691
F2.71586274084
sVbui
p692
F-0.170689094268
sVha
p693
F-0.45316353538100002
sVwith
p694
F-2.5713317108579283
sVme
p695
F-0.31974990757999999
sVkind
p696
F1.7801539231100001
sVmade
p697
F1.3420163098873064
sVwork
p698
F-1.7579004688084889
sVwhile
p699
F0.678980813578
sVmy
p700
F-2.8753371784615616
sVat
p701
F-0.91421334862900006
sVand
p702
F-4.2987663213602483
sVsai
p703
F0.53290061042299997
sVbent
p704
F2.8190469770700002
sVis
p705
F-1.4955383767999999
sVshare
p706
F3.93963817246
sVmine
p707
F1.5177896586399999
sVar
p708
F-1.6500835047402855
sVvu
p709
F5.7313976416900001
sVwant
p710
F0.165345840499
sVin
p711
F-2.9779099379390015
sVneed
p712
F-0.30168858010999999
sVseem
p713
F0.40546510810800002
sVif
p714
F-0.78833944278900003
sVagain
p715
F0.689263680534
sVno
p716
F-0.86192082753199994
sVnot
p717
F-1.2455104959800001
sVsame
p718
F0.55073831860900002
sVsound
p719
F1.9901551645490094
sVother
p720
F-0.316919717012
sg526
F0.043067271591899998
sVbuild
p721
F-0.027504132188100001
sVyou
p722
F-1.0306379829400001
sVtrash
p723
F4.0086310439500004
sVwhat
p724
F-0.135636827041
sVkinda
p725
F2.2168715747199998
sVsuck
p726
F2.4580336315400002
sg74
F-5.3999955342349502
sg20
F-5.4730294746020105
sVlight
p727
F0.84859571910300002
sVm
p728
F0.086123244309063235
sVswitch
p729
F1.62710274861
sVthi
p730
F-2.5864139275668925
sVvolum
p731
F5.9466616355703472
sVthe
p732
F-6.1946115557714645
ssI19
(dp733
Vand
p734
F-1.80144008694
sVon
p735
F-1.54058399738
sVwant
p736
F0.165345840499
sVbusi
p737
F2.4208546282999999
sVmotherboard
p738
F-0.210876661228
sVwhen
p739
F-0.41493161598
sVover
p740
F0.17379767721100001
sVmove
p741
F0.734185367925
sVbecaus
p742
F0.099469270801000001
sVrealli
p743
F-0.28807578265341893
sVas
p744
F-1.3347747048823937
sVbeen
p745
F0.081719426026199998
sVdesign
p746
F0.64751188585300001
sVconnect
p747
F0.90789546138400001
sVhave
p748
F-3.2098381576959847
sVin
p749
F-2.9779099379390015
sVslot
p750
F0.45226309455800001
sV25
p751
F3.1146751927044312
sVwai
p752
F0.46250908583200001
sVbottom
p753
F1.27009782612
sVanoth
p754
F0.42809273363
sVthere
p755
F-0.13704373833950509
sVhad
p756
F-1.5909814696261155
sVlong
p757
F0.74232652550900002
sVsinc
p758
F0.57695064556099995
sVto
p759
F-4.964186023842335
sVthat
p760
F-1.2350038327299999
sVwon
p761
F1.28639620785
sg526
F0.072919229470234909
sVswap
p762
F2.0885621260799998
sVmaster
p763
F1.6437420676200001
sVyou
p764
F-1.7450217949928502
sVis
p765
F-2.5321665860981173
sVcan
p766
F-0.68468083236599997
sVcase
p767
F-1.5051099727687474
sVthem
p768
F-0.016082688232699999
sVgood
p769
F-0.71812446364600002
sVget
p770
F-0.72348640678800002
sVwith
p771
F-1.5186699304
sVhundr
p772
F2.95880891945
sVnever
p773
F0.40741252839300002
sVreach
p774
F2.0032974744200001
sVproblem
p775
F-0.26405892668800002
sVsomeon
p776
F2.1313494012800001
sVeven
p777
F-0.105749545034
sVprocess
p778
F1.76488645098
sVfacebook
p779
F4.9429402813200003
sVnotic
p780
F1.4085903666799999
sVdisappoint
p781
F1.8643720021900001
sVfront
p782
F0.53622103406099997
sVre
p783
F0.81141671586099995
sVnow
p784
F-0.020734900729057499
sVcage
p785
F4.6318841050217259
sVeveryth
p786
F0.25828698476799999
sVpanel
p787
F0.94724480017299995
sg74
F-3.8468576478927767
sVloss
p788
F3.3895918355400001
sVdon
p789
F0.0012978587156000001
sg20
F-5.4730294746020105
sVdvd
p790
F2.1003771872834185
sVno
p791
F-0.86192082753199994
sg728
F0.041038187365100003
sVdrive
p792
F-0.31690360034824649
sVus
p793
F-1.4407064994876577
sVcooler
p794
F0.058074374517699999
sVso
p795
F-0.93352145263300002
sg52
F-1.8754152183129169
sVthi
p796
F-1.52757773055
sVagain
p797
F0.689263680534
sVthe
p798
F-4.8944853171907621
sVcomplet
p799
F1.5631832309
sVmy
p800
F-2.8753371784615616
sVorder
p801
F1.4704801412755837
sVbai
p802
F1.3518741372300001
ssI20
(dp803
Vedg
p804
F4.2405779462670132
sVcabl
p805
F0.14074773050617612
sVmotherboard
p806
F-0.210876661228
sVis
p807
F-1.4955383767999999
sVit
p808
F-1.75476714038
sVan
p809
F-1.1408947468638637
sVhave
p810
F-2.5814777083900893
sVsuppli
p811
F0.40353826225998524
sVport
p812
F1.5042230149740989
sVif
p813
F-0.78833944278900003
sV25
p814
F1.83957734358
sVe35
p815
F5.2613940124400003
sVh61i
p816
F7.3408355541199999
sVfit
p817
F0.107380135502
sVto
p818
F-3.0106811359245844
sVinterfer
p819
F3.3154838633899999
sg280
F-0.53047564920000001
sVlittl
p820
F0.13223521616299999
sVdont
p821
F1.6238078527199999
sVtight
p822
F1.86019663078
sVenough
p823
F0.44111244683799999
sg526
F0.043067271591899998
sVboard
p824
F-0.51161503514026452
sVmsi
p825
F1.30774933232
sVrecommend
p826
F0.77416312432000001
sVinch
p827
F2.0885621260799998
sVyou
p828
F-2.1629095361659982
sVnice
p829
F-0.29639883466599998
sVcase
p830
F-1.5051099727687474
sVpower
p831
F-0.86292537377924916
sVthat
p832
F-2.0910432573675259
sVbut
p833
F-2.1565036917022153
sVsata
p834
F1.1510555424256488
sVfan
p835
F-0.99531526199700004
sVnot
p836
F-1.2455104959800001
sV90
p837
F2.57866161933
sVwith
p838
F-3.6239934913158569
sVhd
p839
F0.98646551332599997
sg74
F-3.8468576478927767
sVon
p840
F-1.54058399738
sVabout
p841
F-0.23628637675299999
sVoff
p842
F0.20993672382699999
sVwould
p843
F-0.48480917809700003
sg20
F-3.009196407407337
sVloud
p844
F0.82909022447900005
sVwork
p845
F-1.0382443351599999
sVus
p846
F-1.4407064994876577
sVwill
p847
F-0.44861901196300003
sVdegre
p848
F1.5539381727599999
sVso
p849
F-0.93352145263300002
sVthi
p850
F-1.52757773055
sVof
p851
F-2.6791614926288556
sVthe
p852
F-4.4759381540914047
sVegg
p853
F0.64999327670499996
sVloos
p854
F2.7457157039900002
sVblock
p855
F2.16468582155
ssI21
(dp856
Vis
p857
F-1.4955383767999999
sVit
p858
F-2.9710790362736348
sVup
p859
F-0.62679118521099997
sVexpect
p860
F0.68282450825300001
sVdecid
p861
F1.81140646661
sVfor
p862
F-1.61667495617
sVperform
p863
F0.44111244683799999
sVwhen
p864
F-0.41493161598
sVdue
p865
F1.4273325484899999
sVwhile
p866
F0.678980813578
sVto
p867
F-3.7316616663077515
sVlive
p868
F2.2719313519000002
sVhd
p869
F0.98646551332599997
sVbe
p870
F-0.92094912539100005
sVfar
p871
F0.16458102210600001
sVprice
p872
F-0.52741871139700003
sVnot
p873
F-1.2455104959800001
sVshortag
p874
F4.7017782245099999
sVha
p875
F-0.45316353538100002
sVthe
p876
F-3.1758119155107023
sVglad
p877
F2.39207566375
sVnone
p878
F-0.87010417925600003
sg20
F-3.009196407407337
sVfault
p879
F1.7686815219500001
sVquiet
p880
F-0.36414438440843305
sVdid
p881
F0.31796746804100001
sg85
F-0.95845035277400004
sVso
p882
F-0.93352145263300002
sVgrab
p883
F3.53417306435
sVmy
p884
F-1.3701135717099999
ssI22
(dp885
Vand
p886
F-3.0501032041501239
sVon
p887
F-1.54058399738
sVjust
p888
F-0.64838585469200005
sVam
p889
F0.47807764107200001
sVit
p890
F-2.9710790362736348
sVmonth
p891
F0.55637849148600005
sVsee
p892
F0.39289848550799999
sVrma
p893
F0.64875181161700002
sVgo
p894
F-0.16300519257599999
sVseem
p895
F0.40546510810800002
sVfine
p896
F0.45124424576900002
sVwhat
p897
F-0.135636827041
sVfrom
p898
F-0.535043605373
sVreview
p899
F0.53733029651499997
sVto
p900
F-3.7316616663077515
sVnew
p901
F0.17148553745299999
sVfunction
p902
F2.0178255749799998
sVdo
p903
F-0.21402296691700001
sVsure
p904
F0.50888198855699995
sVwa
p905
F-1.02413842432
sVdi
p906
F1.5946323635799999
sVafter
p907
F-0.0910563626845
sVnot
p908
F-1.2455104959800001
sVnow
p909
F-0.0122463663922
sVwith
p910
F-1.5186699304
sV10
p911
F1.00224147592
sg20
F-3.7298213835801737
sVwork
p912
F-1.0382443351599999
sg728
F0.041038187365100003
sVwhile
p913
F0.678980813578
sVthe
p914
F-3.1758119155107023
sVinexpens
p915
F1.970197526
ssI23
(dp916
Vcontrol
p917
F0.69574458461800004
sVpurchas
p918
F0.56318896048800005
sVcost
p919
F1.2360423217100001
sVbe
p920
F-0.92094912539100005
sValmost
p921
F1.15052014827
sVhard
p922
F0.34965866700199999
sVqualiti
p923
F0.437088296539
sVback
p924
F0.13360363897644278
sVhitachi
p925
F3.12132784895
sVas
p926
F-0.78833944278900003
sVrma
p927
F0.64875181161700002
sVsame
p928
F0.55073831860900002
sVhave
p929
F-2.0827199608237223
sVship
p930
F1.2068654527054277
sVbecaus
p931
F0.099469270801000001
sVclick
p932
F2.43556077568
sVif
p933
F-0.78833944278900003
sVagain
p934
F0.689263680534
sVwhat
p935
F-0.135636827041
sVfor
p936
F-1.61667495617
sVtwo
p937
F0.20993672382699999
sVsend
p938
F1.88551443877
sVcheck
p939
F1.6205237775200001
sVto
p940
F-1.7781567783900001
sg280
F-0.53047564920000001
sg11
F-0.18749621258400001
sVgot
p941
F0.072612532963700002
sVyou
p942
F-2.1629095361659982
sVout
p943
F-0.60966688068599995
sVever
p944
F0.989949837409
sVweek
p945
F1.1142988848399999
sVdo
p946
F-0.36237238301059305
sVthem
p947
F-0.016082688232699999
sVshell
p948
F3.53417306435
sVthat
p949
F-2.0910432573675259
sVafter
p950
F-0.0910563626845
sVguess
p951
F1.47720437853
sVme
p952
F-0.31974990757999999
sVanywher
p953
F2.9219949463299999
sVbroken
p954
F2.3710222545500002
sVbui
p955
F-0.170689094268
sVnever
p956
F0.40741252839300002
sVnew
p957
F0.17148553745299999
sVnot
p958
F-1.2455104959800001
sVdon
p959
F0.0012978587156000001
sVspin
p960
F2.2532392188900001
sVkid
p961
F3.3154838633899999
sVago
p962
F1.53871717875
sVon
p963
F-1.54058399738
sVoff
p964
F0.20993672382699999
sVanyth
p965
F0.989949837409
sVthese
p966
F0.036628014407779956
sg728
F0.041038187365100003
sVdrive
p967
F-0.27869897396140397
sVwill
p968
F-0.44861901196300003
sg20
F-4.2411129410046744
sg85
F-0.95845035277400004
sVar
p969
F-1.3312769818538526
sg52
F-1.10765043928
sVserious
p970
F2.71586274084
sVthe
p971
F-3.1758119155107023
sVmy
p972
F-1.3701135717099999
ssI24
(dp973
Vnone
p974
F-0.87010417925600003
sVwork
p975
F-1.0382443351599999
sVgreat
p976
F-1.4037326114075628
sVfast
p977
F0.39964549905500002
sVcapac
p978
F2.7975407718500001
sVto
p979
F-1.7781567783900001
sVels
p980
F1.47720437853
sVnoth
p981
F0.82021442656499999
sVsai
p982
F0.53290061042299997
ssI25
(dp983
Veven
p984
F-0.105749545034
sVnone
p985
F-0.87010417925600003
sVrun
p986
F-0.63918803818699998
sV24c
p987
F4.9429402813200003
sV22
p988
F3.65195610001
sVthat
p989
F-1.2350038327299999
sVgreat
p990
F-0.82906709323600003
sVin
p991
F-1.4189900411900001
sVnever
p992
F0.40741252839300002
sVquiet
p993
F-0.21506953948800001
sVfast
p994
F0.39964549905500002
sVdrive
p995
F-0.13280155437300001
sVheavi
p996
F1.7573392453400001
sVgame
p997
F0.20993672382699999
sVtemperatur
p998
F1.79957200896
sVat
p999
F-0.91421334862900006
sVabov
p1000
F1.74984857361
sVambient
p1001
F3.4090099214
sVveri
p1002
F-0.72348640678800002
ssI26
(dp1003
Vnone
p1004
F-0.87010417925600003
sVgood
p1005
F-0.71812446364600002
sVno
p1006
F-0.86192082753199994
sVprice
p1007
F-0.52741871139700003
sVgreat
p1008
F-0.82906709323600003
sVdrive
p1009
F-0.13280155437300001
sVissu
p1010
F0.135200377713
ssI27
(dp1011
Vnone
p1012
F-0.87010417925600003
sVata100
p1013
F6.2422232654599998
sVold
p1014
F0.54512977895000003
sVp4
p1015
F3.4090099214
sVfor
p1016
F-1.61667495617
sVinto
p1017
F0.44111244683799999
sVlife
p1018
F2.1933410773099999
sVquiet
p1019
F-0.21506953948800001
sVfast
p1020
F0.39964549905500002
sVan
p1021
F-0.67383081634200004
sVbreath
p1022
F3.7299176414800002
sVdesktop
p1023
F1.96093820058
sVaddit
p1024
F1.9071135505700001
sVcool
p1025
F-0.36217212835599999
ssI28
(dp1026
Vreplac
p1027
F0.12854108562300001
sVis
p1028
F-1.4955383767999999
sVam
p1029
F0.47807764107200001
sVit
p1030
F-1.75476714038
sVproduct
p1031
F0.48017188267499999
sVnot
p1032
F-1.2455104959800001
sVcost
p1033
F1.2360423217100001
sVhave
p1034
F-1.2300879597100001
sVgo
p1035
F-0.16300519257599999
sVhappen
p1036
F1.6848437433000001
sVship
p1037
F0.71279417794400002
sVout
p1038
F-0.60966688068599995
sVfor
p1039
F-1.61667495617
sVto
p1040
F-1.7781567783900001
sVhad
p1041
F-0.75811119482
sVhappi
p1042
F1.2249434286400001
sVre
p1043
F0.81141671586099995
sVunder
p1044
F0.84104851346700005
sVpai
p1045
F1.29346337508
sVyou
p1046
F-1.0306379829400001
sVbe
p1047
F-0.92094912539100005
sVthem
p1048
F-0.016082688232699999
sVwd
p1049
F2.7437852649383405
sVreturn
p1050
F2.3715308128263755
sVwa
p1051
F-1.02413842432
sVthat
p1052
F-2.0910432573675259
sVarriv
p1053
F1.94720800777
sVshouldn
p1054
F3.0101022138400002
sVpart
p1055
F0.93560709609199999
sVunderstand
p1056
F2.4135818689700002
sVveri
p1057
F-0.72348640678800002
sVwith
p1058
F-1.5186699304
sVwhy
p1059
F1.2427612719600001
sVwarranti
p1060
F2.6784467198628237
sg74
F-1.8330482808399999
sVon
p1061
F-1.54058399738
sVanyth
p1062
F0.989949837409
sg20
F-3.7298213835801737
sVof
p1063
F-2.6791614926288556
sVdoa
p1064
F2.4075565800216436
sVdrive
p1065
F-0.22485257736062325
sg52
F-1.10765043928
sVthi
p1066
F-1.52757773055
sVmani
p1067
F0.98820615780400001
sVthe
p1068
F-3.9363370112840608
ssI29
(dp1069
Von
p1070
F-1.54058399738
sVnone
p1071
F-0.87010417925600003
sVgood
p1072
F-0.71812446364600002
sVlike
p1073
F-0.49038466048099999
sVjust
p1074
F-0.64838585469200005
sVfar
p1075
F0.16458102210600001
sg20
F-1.77727987381
sVwork
p1076
F-1.0382443351599999
sVit
p1077
F-1.75476714038
sVto
p1078
F-1.7781567783900001
sVbui
p1079
F-0.170689094268
sVso
p1080
F-1.5805892155177885
sVanoth
p1081
F0.42809273363
sVsuppos
p1082
F1.7801539231100001
sg175
F0.71809923017300004
ssI30
(dp1083
g74
F-3.1036205285345009
sVon
p1084
F-1.54058399738
sVnone
p1085
F-0.87010417925600003
sVburn
p1086
F2.1258997965100002
sVrom
p1087
F3.26329811022
sVjust
p1088
F-0.64838585469200005
sVof
p1089
F-1.58235593656
sVis
p1090
F-1.4955383767999999
sVwork
p1091
F-1.7579004688084889
sVit
p1092
F-4.1873909321672702
sVfast
p1093
F0.39964549905500002
sVcd
p1094
F1.61398780654
sVand
p1095
F-1.80144008694
sVlot
p1096
F0.19959043177300001
sVthi
p1097
F-1.52757773055
sVnot
p1098
F-2.1088325846263563
sVnois
p1099
F0.79261645136100001
sVdoe
p1100
F0.25807426391646465
sVfine
p1101
F0.45124424576900002
sVor
p1102
F-0.46055576616799998
sVmake
p1103
F-0.20613856339299999
ssI31
(dp1104
Vve
p1105
F0.41192019611229358
sVover
p1106
F0.17379767721100001
sVin
p1107
F-1.4189900411900001
sVyear
p1108
F0.20594470255700001
sValwai
p1109
F1.1242294530400001
sVfor
p1110
F-1.61667495617
sVno
p1111
F-1.4593588190017006
sVhad
p1112
F-1.2835938320604146
sVdesktop
p1113
F1.96093820058
sVlite
p1114
F3.1977008277299999
sVproduct
p1115
F0.48017188267499999
sVnever
p1116
F0.40741252839300002
sVburn
p1117
F2.1258997965100002
sVplai
p1118
F0.86079099219699995
sVnow
p1119
F-0.0122463663922
sVwith
p1120
F-1.5186699304
sg74
F-3.1036205285345009
sVon
p1121
F-3.2330885086271075
sVgreat
p1122
F-1.4037326114075628
sg20
F-3.009196407407337
sVwell
p1123
F-0.33378194324100002
sVbad
p1124
F0.58042086303999996
sVproblem
p1125
F-0.44709062722347254
sVmy
p1126
F-1.3701135717099999
ssI32
(dp1127
Vand
p1128
F-1.80144008694
sVlove
p1129
F0.85467476517899998
sVit
p1130
F-2.9710790362736348
sVrai
p1131
F2.78695866252
sVfind
p1132
F1.0111146486
sVblue
p1133
F0.79548589378900003
sValwai
p1134
F1.1242294530400001
sVwa
p1135
F-1.02413842432
sVfor
p1136
F-1.61667495617
sVno
p1137
F-0.86192082753199994
sVperfectli
p1138
F1.3798302145000001
sVto
p1139
F-1.7781567783900001
sVmemorex
p1140
F5.1436109767899998
sVthei
p1141
F-0.45727707470700002
sVhere
p1142
F1.27705034544
sVwith
p1143
F-1.5186699304
sVlucki
p1144
F3.1664482842299999
sVon
p1145
F-1.54058399738
sVnone
p1146
F-0.87010417925600003
sVmade
p1147
F0.79261645136100001
sg20
F-3.7298213835801737
sVwish
p1148
F1.07553434139
sVwork
p1149
F-1.0382443351599999
sVdrive
p1150
F-0.13280155437300001
sVproblem
p1151
F-0.26405892668800002
ssI33
(dp1152
Vlinux
p1153
F3.0923403120700002
sV11
p1154
F3.9680991494361848
sVgreat
p1155
F-0.82906709323600003
sVand
p1156
F-1.80144008694
sV04
p1157
F4.1627817237800002
sV10
p1158
F1.00224147592
sV64bit
p1159
F3.0641694351100002
sVwork
p1160
F-1.0382443351599999
sVnone
p1161
F-0.87010417925600003
sVit
p1162
F-1.75476714038
sVversion
p1163
F1.6709546311400001
sVubuntu
p1164
F3.1511808120999998
sVwith
p1165
F-1.5186699304
ssI34
(dp1166
Vwork
p1167
F-1.0382443351599999
sg20
F-3.7298213835801737
sVwish
p1168
F1.07553434139
sVcould
p1169
F0.15696483906100001
sVdoa
p1170
F1.4219416998500001
sVhad
p1171
F-0.75811119482
sVdofa
p1172
F7.3408355541199999
sVso
p1173
F-0.93352145263300002
sVthi
p1174
F-1.52757773055
sVyou
p1175
F-1.0306379829400001
sVtell
p1176
F1.5946323635799999
sVcard
p1177
F-0.31408149372499999
ssI35
(dp1178
Vbattlefield
p1179
F2.6494876718899998
sVnone
p1180
F-0.87010417925600003
sVgood
p1181
F-1.2158904109133479
sg280
F-0.53047564920000001
sg20
F-1.77727987381
sVhad
p1182
F-0.75811119482
sVtwo
p1183
F0.20993672382699999
sVhigh
p1184
F0.35334530712200002
sV5670
p1185
F4.5682468318799998
sVxfx
p1186
F2.57866161933
sVplai
p1187
F1.4574458414897484
sVset
p1188
F0.056700747928100002
sVlow
p1189
F0.40643834419500002
sV6950
p1190
F2.7764873626600002
sVon
p1191
F-3.2330885086271075
sVyet
p1192
F0.70488899843700004
sVhd
p1193
F0.98646551332599997
ssI36
(dp1194
Vand
p1195
F-1.80144008694
sVall
p1196
F-0.724115337626
sVset
p1197
F0.056700747928100002
sVridicul
p1198
F2.88648825787
sVstep
p1199
F2.7661245756200001
sVcore
p1200
F0.442121019793
sVframe
p1201
F4.5173280551073178
sVram
p1202
F-0.0058196090532599996
sVii
p1203
F1.2161521632300001
sVup
p1204
F-0.62679118521099997
sVenjoi
p1205
F3.2803925435800001
sVveri
p1206
F-0.72348640678800002
sVrate
p1207
F1.9972842158477666
sVim
p1208
F1.9203005548500001
sVexterior
p1209
F4.0827390160999997
sVquad
p1210
F1.8274068079600001
sVhowev
p1211
F1.3149695803000001
sVyour
p1212
F-0.047492305453800003
sVif
p1213
F-0.78833944278900003
sVhomefront
p1214
F12.429115021412482
sVdate
p1215
F2.7061065658899999
sVsystem
p1216
F0.0019474202843999999
sVfor
p1217
F-2.7372686439211087
sVperfectli
p1218
F1.3798302145000001
sVperhap
p1219
F3.0101022138400002
sVnext
p1220
F1.41925713448
sVto
p1221
F-3.0106811359245844
sVthat
p1222
F-1.2350038327299999
sVquiet
p1223
F-0.21506953948800001
sVcall
p1224
F1.7956581096399999
sVbuild
p1225
F-0.027504132188100001
sVphenom
p1226
F1.4219416998500001
sVnew
p1227
F0.17148553745299999
sVis
p1228
F-1.4955383767999999
sg280
F-0.53047564920000001
sV40fp
p1229
F5.3949254050700004
sVme
p1230
F-0.31974990757999999
sVgood
p1231
F-0.71812446364600002
sVrun
p1232
F-0.63918803818699998
sVget
p1233
F-0.72348640678800002
sVprice
p1234
F-0.52741871139700003
sVcrysi
p1235
F4.7730614410921079
sVduti
p1236
F3.93963817246
sVamd
p1237
F0.69185100409800004
sV4gb
p1238
F1.4630997723400001
sVgame
p1239
F0.35545377204367695
sVbeauti
p1240
F2.4733011036699999
sVbrotherhood
p1241
F5.7313976416900001
sVnot
p1242
F-1.2455104959800001
sVsuch
p1243
F1.65725578678
sV4mhz
p1244
F7.3408355541199999
sg74
F-1.8330482808399999
sVon
p1245
F-3.2330885086271075
sVgreat
p1246
F-0.82906709323600003
sVassassin
p1247
F5.0382504611299996
sVlook
p1248
F-0.95792358201604932
sVcreed
p1249
F5.5490760849000003
sg20
F-1.77727987381
sVof
p1250
F-1.58235593656
sVpertain
p1251
F6.2422232654599998
sVas
p1252
F-0.78833944278900003
sVsolid
p1253
F0.82021442656499999
sVbelow
p1254
F1.95176382431
sVvega
p1255
F4.7017782245099999
sVthi
p1256
F-1.52757773055
sg10
F-0.54486983712000003
sVthe
p1257
F-3.1758119155107023
sVultra
p1258
F3.5274015554698583
sVfallout
p1259
F4.6327853530200001
sVthink
p1260
F0.45328298245900001
sVcon
p1261
F0.71809923017300004
ssI37
(dp1262
Von
p1263
F-2.6084354515797172
sVall
p1264
F-0.724115337626
sVgood
p1265
F-0.71812446364600002
sVrun
p1266
F-0.63918803818699998
sVto
p1267
F-3.0106811359245844
sVanoth
p1268
F0.42809273363
sVmy
p1269
F-1.3701135717099999
sVprice
p1270
F-0.52741871139700003
sVexcel
p1271
F1.19664992
sVgame
p1272
F0.20993672382699999
sVnot
p1273
F-1.2455104959800001
sVcant
p1274
F1.8940981824600001
sVbui
p1275
F-0.170689094268
sVim
p1276
F1.9203005548500001
sVoverclock
p1277
F0.228508109412
sVmax
p1278
F1.2031085000399999
sVveri
p1279
F-0.72348640678800002
sVabout
p1280
F-0.23628637675299999
sVloud
p1281
F0.82909022447900005
sVcard
p1282
F-0.31408149372499999
ssI38
(dp1283
Vand
p1284
F-1.80144008694
sVlock
p1285
F2.1534497482799999
sVdoesn
p1286
F0.50996131947699996
sVquiet
p1287
F-0.21506953948800001
sVat
p1288
F-0.91421334862900006
sVinstal
p1289
F-0.51703200520899995
sVmonitor
p1290
F1.4547315226699999
sVsystem
p1291
F0.0019474202843999999
sVfast
p1292
F0.39964549905500002
sVto
p1293
F-3.7316616663077515
sVtake
p1294
F0.54289514114799997
sVlot
p1295
F0.19959043177300001
sVnoth
p1296
F0.82021442656499999
sVjuic
p1297
F3.7299176414800002
sVbio
p1298
F0.19248981022299999
sVrun
p1299
F-0.63918803818699998
sVdriver
p1300
F0.99695511999700004
sVbut
p1301
F-1.2736658197599999
sVrestart
p1302
F2.6046371057300002
sg74
F-1.8330482808399999
sVkept
p1303
F2.57866161933
sVof
p1304
F-1.58235593656
sVsignal
p1305
F4.1627817237800002
sVup
p1306
F-0.62679118521099997
sVkeep
p1307
F0.35426909471700002
sVcaus
p1308
F2.2974301791287743
sg52
F-1.10765043928
sVlose
p1309
F2.78695866252
sVproblem
p1310
F-0.26405892668800002
sVfirst
p1311
F0.064279151404599999
ssI39
(dp1312
Veveri
p1313
F1.19236725821
sVbattlefield
p1314
F2.6494876718899998
sVpurchas
p1315
F0.56318896048800005
sV1920x1200
p1316
F4.8559289043399998
sVve
p1317
F0.41192019611229358
sVwithin
p1318
F1.8314472175000001
sVover
p1319
F0.17379767721100001
sVin
p1320
F-1.4189900411900001
sV700
p1321
F4.4504637962300002
sVpast
p1322
F1.2427612719600001
sVgood
p1323
F-0.71812446364600002
sVvideo
p1324
F0.39385956198799998
sVsuppli
p1325
F0.23833619834899999
sVold
p1326
F0.54512977895000003
sVxp
p1327
F2.2594311891399999
sVbest
p1328
F0.772757642711
sV24
p1329
F1.5296945611499999
sVevga
p1330
F1.43547370607
sVthere
p1331
F-0.080940239521400004
sVhad
p1332
F-0.75811119482
sg280
F-0.53047564920000001
sVmarket
p1333
F2.1368288670500002
sVx6800
p1334
F7.3408355541199999
sV8
p1335
F0.73960543539400003
sVnoth
p1336
F0.82021442656499999
sV1000w
p1337
F3.3895918355400001
sVrun
p1338
F-0.63918803818699998
sVpower
p1339
F-0.50965762674799997
sVyear
p1340
F0.20594470255700001
sVdell
p1341
F1.95176382431
sVbut
p1342
F-1.2736658197599999
sVlcd
p1343
F3.05037611297
sVwith
p1344
F-2.5713317108579283
sVcard
p1345
F-0.31408149372499999
sVtruli
p1346
F3.26329811022
sVon
p1347
F-2.6084354515797172
sVnone
p1348
F-0.87010417925600003
sVthese
p1349
F0.021633095355399999
sg20
F-3.009196407407337
sVsli
p1350
F1.1064248284
sVflawlessli
p1351
F2.29097954687
sVthe
p1352
F-3.9363370112840608
sVmy
p1353
F-1.3701135717099999
sVluck
p1354
F2.2845897487700002
ssI40
(dp1355
Vand
p1356
F-1.80144008694
sVeveryth
p1357
F0.25828698476799999
sVall
p1358
F-0.724115337626
sVcomput
p1359
F0.102338713229
sVago
p1360
F1.53871717875
sVjust
p1361
F-0.64838585469200005
sVis
p1362
F-1.4955383767999999
sVproblem
p1363
F-0.26405892668800002
sVframe
p1364
F2.6680067196600001
sVin
p1365
F-2.4025589874834892
sVback
p1366
F0.16559826681695475
sVgo
p1367
F-0.16300519257599999
sVat
p1368
F-0.91421334862900006
sVblank
p1369
F3.7854874926300002
sVfail
p1370
F1.2609023590299999
sVstill
p1371
F0.090910017405299998
sVsalesman
p1372
F7.3408355541199999
sVout
p1373
F-0.60966688068599995
sVha
p1374
F-0.45316353538100002
sVnois
p1375
F0.79261645136100001
sV3rd
p1376
F2.9100187552799999
sVnot
p1377
F-1.2455104959800001
sVcome
p1378
F0.15772385238
sVhad
p1379
F-1.2835938320604146
sVlong
p1380
F0.74232652550900002
sVby
p1381
F0.52591823420523443
sVnote
p1382
F2.0475307294
sVstart
p1383
F0.88721055523100001
sg526
F0.043067271591899998
sVawai
p1384
F1.2609023590299999
sVeventu
p1385
F2.88648825787
sVnvida
p1386
F5.7313976416900001
sVgave
p1387
F1.8984178436000001
sVearli
p1388
F3.65195610001
sVthen
p1389
F0.228508109412
sVthemselv
p1390
F5.7719555369192914
sVthat
p1391
F-2.0910432573675259
sVscreen
p1392
F1.51188993651
sVdriver
p1393
F0.99695511999700004
sVdai
p1394
F0.61580191195599998
sVnoisi
p1395
F1.9889774206499999
sVme
p1396
F-0.31974990757999999
sVfan
p1397
F-0.99531526199700004
sVfailur
p1398
F2.31039763273
sVreport
p1399
F2.4888052902000002
sVnow
p1400
F-0.0122463663922
sVwith
p1401
F-1.5186699304
sVthe
p1402
F-3.9363370112840608
sVcard
p1403
F-0.31408149372499999
sg74
F-3.8468576478927767
sVon
p1404
F-1.54058399738
sVabout
p1405
F-0.23628637675299999
sVgraphic
p1406
F0.84406056393700002
sVok
p1407
F1.8436673288300001
sV1980
p1408
F6.6476883735600003
sVsemi
p1409
F3.7299176414800002
sg20
F-1.77727987381
sVhowev
p1410
F1.3149695803000001
sVdrop
p1411
F1.45751316563
sVwell
p1412
F-0.33378194324100002
sg85
F-0.95845035277400004
sVthi
p1413
F-1.52757773055
sVwent
p1414
F0.96071301722400004
sVmy
p1415
F-1.3701135717099999
sVcame
p1416
F1.2476661542198093
sVfirst
p1417
F0.064279151404599999
ssI41
(dp1418
Vcode
p1419
F2.6587043270000001
sVdeal
p1420
F0.98646551332599997
sVwa
p1421
F-1.02413842432
sVdirt
p1422
F3.4288125486999999
sVcoupon
p1423
F4.0827390160999997
sVinvalid
p1424
F4.8559289043399998
sg280
F-0.53047564920000001
sVmy
p1425
F-1.3701135717099999
sVamaz
p1426
F1.5267050223
ssI42
(dp1427
Vand
p1428
F-1.80144008694
sVflicker
p1429
F6.9790844939782053
sVit
p1430
F-1.75476714038
sVdrive
p1431
F-0.13280155437300001
sVcrazi
p1432
F3.1361429347300001
sVim
p1433
F1.9203005548500001
sVpowercolor
p1434
F3.8750996513199998
sVfind
p1435
F1.0111146486
sVif
p1436
F-0.78833944278900003
sVmonitor
p1437
F1.4547315226699999
sVfor
p1438
F-2.7372686439211087
sVfix
p1439
F1.41657975671
sVto
p1440
F-1.7781567783900001
sVenough
p1441
F0.44111244683799999
sg10
F-0.54486983712000003
sVblack
p1442
F0.82021442656499999
sVsplit
p1443
F4.7017782245099999
sVbetween
p1444
F1.6504760998000001
sVanyon
p1445
F1.7424135951199999
sVyou
p1446
F-1.0306379829400001
sVacross
p1447
F2.7975407718500001
sVthem
p1448
F-0.016082688232699999
sVget
p1449
F-0.72348640678800002
sVscreen
p1450
F2.5598521833188612
sVsite
p1451
F2.0990885390599998
sVlet
p1452
F1.4300389100799999
sVknow
p1453
F0.52300498266899997
sVinsan
p1454
F3.8750996513199998
sVlook
p1455
F-0.45645571942399998
sg74
F-3.8468576478927767
sVon
p1456
F-1.54058399738
sVbar
p1457
F4.0086310439500004
sVlike
p1458
F-0.83029340528325124
sVanyth
p1459
F0.989949837409
sg20
F-3.7298213835801737
sVill
p1460
F3.5121941576300002
sVsecond
p1461
F0.89988901348999994
sVus
p1462
F-0.85090446715400003
sVswitch
p1463
F1.62710274861
sVso
p1464
F-0.93352145263300002
sVthe
p1465
F-3.1758119155107023
ssI43
(dp1466
Vand
p1467
F-1.80144008694
sVold
p1468
F0.54512977895000003
sVinto
p1469
F0.44111244683799999
sVit
p1470
F-1.75476714038
sVvideo
p1471
F0.39385956198799998
sVyear
p1472
F0.20594470255700001
sVcs
p1473
F4.5682468318799998
sVcomput
p1474
F0.102338713229
sVopen
p1475
F1.2472657840800001
sVfrom
p1476
F-0.535043605373
sVrather
p1477
F1.88551443877
sVsupport
p1478
F0.50457627684600004
sg85
F-0.95845035277400004
sVto
p1479
F-1.7781567783900001
sg526
F0.043067271591899998
sVnice
p1480
F-0.29639883466599998
sVbox
p1481
F0.60268305952699996
sVwa
p1482
F-1.02413842432
sVthat
p1483
F-1.2350038327299999
sVread
p1484
F0.96751576454599997
sVjob
p1485
F1.2360423217100001
sVwith
p1486
F-1.5186699304
sVcard
p1487
F-0.31408149372499999
sg74
F-3.1036205285345009
sVdidnt
p1488
F2.3368892481799999
sVplai
p1489
F0.86079099219699995
sVdoe
p1490
F0.15242281762599999
sVswitch
p1491
F1.62710274861
sVsli
p1492
F1.1064248284
sVof
p1493
F-1.58235593656
sVdifficult
p1494
F1.9937280234100001
sVmy
p1495
F-1.3701135717099999
sVwow
p1496
F2.3991931315100001
sVcame
p1497
F0.73689172952299997
ssI44
(dp1498
Vand
p1499
F-1.80144008694
sVclaim
p1500
F2.64035518833
sVown
p1501
F1.06043971516
sVve
p1502
F0.243286703508
sVnot
p1503
F-1.2455104959800001
sVas
p1504
F-1.3347747048823937
sVbest
p1505
F0.772757642711
sValwai
p1506
F1.1242294530400001
sVcompetitor
p1507
F4.2497931007599998
sVfor
p1508
F-1.61667495617
sVreceiv
p1509
F1.48863307435
sVto
p1510
F-1.7781567783900001
sg10
F-0.54486983712000003
sVlarg
p1511
F1.2009510019
sVtake
p1512
F0.54289514114799997
sVweek
p1513
F1.1142988848399999
sVrebat
p1514
F1.5237243941600001
sVthem
p1515
F-0.016082688232699999
sVthei
p1516
F-0.45727707470700002
sVprice
p1517
F-0.52741871139700003
sVbut
p1518
F-1.2736658197599999
sVmost
p1519
F0.60981745364100004
sVdate
p1520
F2.7061065658899999
sVthan
p1521
F-0.31550161230700002
sVcard
p1522
F-0.31408149372499999
sg74
F-1.8330482808399999
sVgreat
p1523
F-0.82906709323600003
sVlonger
p1524
F1.6337252893700001
sg20
F-3.009196407407337
sVof
p1525
F-1.58235593656
sVzotac
p1526
F2.6046371057300002
sVquiet
p1527
F-0.21506953948800001
sVthe
p1528
F-1.8756856769300001
sVusual
p1529
F1.95176382431
ssI45
(dp1530
Vand
p1531
F-4.2987663213602483
sVown
p1532
F1.06043971516
sVbe
p1533
F-1.5593024150949193
sVtri
p1534
F0.92410327161100003
sVit
p1535
F-1.75476714038
sVhim
p1536
F3.9068483496400002
sVthree
p1537
F1.49151077418
sVsecond
p1538
F0.89988901348999994
sVsure
p1539
F0.50888198855699995
sVconnect
p1540
F0.90789546138400001
sVin
p1541
F-1.4189900411900001
sVneed
p1542
F-0.30168858010999999
sVchang
p1543
F1.31015029386
sVunit
p1544
F1.41925713448
sVif
p1545
F-0.78833944278900003
sVagain
p1546
F1.1670248573585129
sVfrom
p1547
F-0.535043605373
sVwould
p1548
F-0.48480917809700003
sVtheir
p1549
F0.70488899843700004
sVrep
p1550
F4.4504637962300002
sVthat
p1551
F-2.0910432573675259
sVwhen
p1552
F-0.41493161598
sVcopi
p1553
F3.6772739079900001
sVcustom
p1554
F1.14235683763
sVto
p1555
F-4.964186023842335
sVtaken
p1556
F3.3335023688900001
sVtermin
p1557
F4.9429402813200003
sVwait
p1558
F1.3443834655
sVever
p1559
F0.989949837409
sVsent
p1560
F1.8812500399800001
sVtold
p1561
F2.57015092966
sVrebat
p1562
F3.6360549296848301
sVfax
p1563
F5.9545411929999998
sVgood
p1564
F-0.71812446364600002
sVeveri
p1565
F1.19236725821
sVwa
p1566
F-2.1492694825751473
sVget
p1567
F-1.224968969826548
sVfar
p1568
F0.16458102210600001
sVwho
p1569
F1.2450109916900001
sVsomeon
p1570
F2.1313494012800001
sVbut
p1571
F-1.2736658197599999
sVinvoic
p1572
F4.6327853530200001
sg74
F-3.8468576478927767
sVhold
p1573
F1.4300389100799999
sVeveryth
p1574
F0.25828698476799999
sVcare
p1575
F1.5539381727599999
sVme
p1576
F-0.31974990757999999
sVon
p1577
F-2.6084354515797172
sVexperi
p1578
F1.6848437433000001
sVcenter
p1579
F2.3991931315100001
sg20
F-5.4730294746020105
sVof
p1580
F-2.6791614926288556
sVservic
p1581
F1.6205237775200001
sVwork
p1582
F-1.0382443351599999
sg728
F0.041038187365100003
sVtry
p1583
F0.71809923017300004
sVdid
p1584
F0.31796746804100001
sVdeni
p1585
F6.7872023499690135
sVcontact
p1586
F1.8770037491
sVso
p1587
F-0.93352145263300002
sVtime
p1588
F-0.54892516344121811
sVthe
p1589
F-5.2364632498647623
sVmy
p1590
F-2.3198039309877028
sVll
p1591
F0.88093109974600003
sVtalk
p1592
F4.7547569689781231
sVluck
p1593
F2.2845897487700002
ssI46
(dp1594
Vand
p1595
F-1.80144008694
sVonc
p1596
F1.1987981485400001
sVis
p1597
F-1.4955383767999999
sVrealli
p1598
F-0.17014219789099999
sVin
p1599
F-1.4189900411900001
sVgo
p1600
F-0.16300519257599999
sVfine
p1601
F0.45124424576900002
sVfreez
p1602
F2.9100187552799999
sVpretti
p1603
F0.46147974966299998
sVto
p1604
F-1.7781567783900001
sVreview
p1605
F0.53733029651499997
sVstart
p1606
F0.88721055523100001
sVwindow
p1607
F0.45430391159299999
sVwon
p1608
F1.28639620785
sVsplit
p1609
F4.7017782245099999
sVlot
p1610
F0.19959043177300001
sVreplac
p1611
F0.12854108562300001
sVforward
p1612
F3.0923403120700002
sVdisappoint
p1613
F1.8643720021900001
sVyou
p1614
F-1.0306379829400001
sVinto
p1615
F0.44111244683799999
sVgood
p1616
F-1.2158904109133479
sVwa
p1617
F-1.02413842432
sVmess
p1618
F2.59590342576
sVscreen
p1619
F1.51188993651
sVgame
p1620
F0.20993672382699999
sVhalf
p1621
F1.8233826576600001
sVcard
p1622
F-0.31408149372499999
sg74
F-3.1036205285345009
sVlook
p1623
F-0.77284671439320707
sVof
p1624
F-1.58235593656
sVhopefulli
p1625
F2.4580336315400002
sVup
p1626
F-1.0612497280398312
sg52
F-1.10765043928
sVthi
p1627
F-1.52757773055
sVthe
p1628
F-3.1758119155107023
ssI47
(dp1629
Vcompact
p1630
F2.93411630686
sVand
p1631
F-1.80144008694
sVnone
p1632
F-0.87010417925600003
sVweight
p1633
F2.6964446549800001
sVfar
p1634
F0.16458102210600001
sVlight
p1635
F0.84859571910300002
sg280
F-0.53047564920000001
sVso
p1636
F-0.93352145263300002
ssI48
(dp1637
Vand
p1638
F-3.0501032041501239
sVphantom
p1639
F3.7032493943999998
sVjust
p1640
F-1.0978126817867104
sVit
p1641
F-4.1873909321672702
sVhigh
p1642
F0.35334530712200002
sVwant
p1643
F0.165345840499
sVin
p1644
F-2.4025589874834892
sVmonei
p1645
F1.0492664145599999
sVhate
p1646
F2.9841267274300001
sVslot
p1647
F0.45226309455800001
sVfit
p1648
F0.107380135502
sV200mm
p1649
F5.4688005286554793
sVabl
p1650
F0.94224061958799998
sVto
p1651
F-3.0106811359245844
sVbe
p1652
F-0.92094912539100005
sVget
p1653
F-0.72348640678800002
sVnzxt
p1654
F2.7975407718500001
sVeven
p1655
F-0.105749545034
sVspot
p1656
F2.7457157039900002
sVback
p1657
F0.078908461420499995
sVregular
p1658
F2.6313053528100001
sVthan
p1659
F-0.31550161230700002
sg74
F-3.1036205285345009
sVnone
p1660
F-0.87010417925600003
sVwouldnt
p1661
F6.0219250120535941
sg20
F-1.77727987381
sVlarger
p1662
F2.5450450085299998
sVslightli
p1663
F2.0833401821000002
sVso
p1664
F-0.93352145263300002
sVthe
p1665
F-1.8756856769300001
sVmy
p1666
F-2.3198039309877028
ssI49
(dp1667
Vplug
p1668
F1.01468608097
sVon
p1669
F-1.54058399738
sVnon
p1670
F1.8153826149900001
sVlight
p1671
F0.84859571910300002
sVsilent
p1672
F1.3518741372300001
sVturn
p1673
F0.95227414857799997
sVfar
p1674
F0.16458102210600001
sVof
p1675
F-1.58235593656
sVit
p1676
F-1.75476714038
sVthese
p1677
F0.021633095355399999
sg280
F-0.53047564920000001
sVso
p1678
F-0.93352145263300002
sVin
p1679
F-1.4189900411900001
sg85
F-0.95845035277400004
sVbought
p1680
F-0.0462546815335
ssI50
(dp1681
Vall
p1682
F-1.2260338423016748
sVjust
p1683
F-0.64838585469200005
sVsplurg
p1684
F5.7313976416900001
sVcheap
p1685
F0.24163381057
sVveri
p1686
F-1.224968969826548
sVsleev
p1687
F2.43556077568
sVgo
p1688
F-0.16300519257599999
sVdecid
p1689
F3.0669777517887744
sV20
p1690
F1.46871776465
sVhad
p1691
F-0.75811119482
sVto
p1692
F-3.7316616663077515
sVblack
p1693
F1.388743743793122
sVcase
p1694
F-1.8655450163551726
sVthem
p1695
F-0.016082688232699999
sVthei
p1696
F-1.0911977048427133
sVget
p1697
F-1.224968969826548
sV50mm
p1698
F5.3949254050700004
sVspell
p1699
F5.0382504611299996
sVfan
p1700
F-2.7786808075473273
sVnot
p1701
F-2.1088325846263563
sg10
F-0.92254482849188468
sVname
p1702
F4.1112672525746925
sVcooler
p1703
F0.058074374517699999
sVdidn
p1704
F0.52191148884799998
sVsolid
p1705
F0.82021442656499999
sg52
F-2.3245288234216379
sVwholli
p1706
F7.3408355541199999
sVright
p1707
F0.71809848597025461
sVold
p1708
F0.54512977895000003
sVcabl
p1709
F0.083127876963199995
sVexhaust
p1710
F2.1150888804100001
sVreplac
p1711
F0.12854108562300001
sVyeah
p1712
F3.26329811022
sVcicada
p1713
F7.3408355541199999
sVproper
p1714
F2.8082360609700001
sVout
p1715
F-1.0322557601142774
sVexcit
p1716
F4.0086310439500004
sVwa
p1717
F-1.734017085640513
sVfor
p1718
F-2.7372686439211087
sVounc
p1719
F10.081914632456003
sVarmor
p1720
F4.1219597292600003
sVcurrent
p1721
F1.4300389100799999
sVre
p1722
F1.3738479247192623
sVnew
p1723
F0.17148553745299999
sVcommon
p1724
F3.0641694351100002
sVasu
p1725
F0.390979099123
sVdiscount
p1726
F3.7854874926300002
sVput
p1727
F0.35334530712200002
sVsuper
p1728
F1.69186131596
sVsinc
p1729
F0.57695064556099995
sVh70
p1730
F4.0449986881199997
sVon
p1731
F-4.0200582900526491
sVabout
p1732
F-0.23628637675299999
sVairflow
p1733
F1.17962823243
sVactual
p1734
F0.93066067215699999
sVcow
p1735
F6.6476883735600003
sVof
p1736
F-3.7759670486977117
sVcould
p1737
F0.15696483906100001
sVquiet
p1738
F-0.21506953948800001
sg85
F-2.0114156884098016
sVsweat
p1739
F4.0086310439500004
sVoutsid
p1740
F2.55334381134
sVmani
p1741
F0.98820615780400001
sVloud
p1742
F0.82909022447900005
sVthink
p1743
F0.45328298245900001
sVfeel
p1744
F1.1546269302200001
sVonc
p1745
F1.1987981485400001
sVmoral
p1746
F6.6476883735600003
sVcorsair
p1747
F0.82909022447900005
sVyour
p1748
F-0.080411463077393192
sVsize
p1749
F0.99519919329499995
sVsilent
p1750
F1.3518741372300001
sVsystem
p1751
F0.0019474202843999999
sVstori
p1752
F3.8750996513199998
sVnewegg
p1753
F0.38001234059319317
sVstock
p1754
F0.430084766161
sVsabretooth
p1755
F6.2422232654599998
sVhei
p1756
F3.5121941576300002
sVmore
p1757
F-0.41707065422799999
sVthat
p1758
F-2.9470826820050515
sVimpress
p1759
F2.0032974744200001
sVbut
p1760
F-2.6729307410048779
sVbui
p1761
F-0.170689094268
sVhear
p1762
F2.6624985908259071
sVhole
p1763
F1.5631832309
sVha
p1764
F-0.45316353538100002
sVwith
p1765
F-2.5713317108579283
sVsound
p1766
F1.1754176998899999
sVmade
p1767
F0.79261645136100001
sVhous
p1768
F2.52865119875
sVthese
p1769
F0.045399479754771453
sVwish
p1770
F1.07553434139
sVcrazi
p1771
F3.1361429347300001
sVintak
p1772
F2.2409691263
sVcost
p1773
F1.2360423217100001
sVcan
p1774
F-1.1592654209039295
sVmy
p1775
F-2.8753371784615616
sVand
p1776
F-5.3068806350316322
sVpurchas
p1777
F0.56318896048800005
sVp67
p1778
F2.49664846766
sVdo
p1779
F-0.21402296691700001
sVis
p1780
F-2.5321665860981173
sVit
p1781
F-5.4037028280609043
sVan
p1782
F-1.1408947468638637
sVas
p1783
F-1.3347747048823937
sVar
p1784
F-0.78627363122299998
sVat
p1785
F-0.91421334862900006
sVhave
p1786
F-1.2300879597100001
sVin
p1787
F-2.9779099379390015
sVneed
p1788
F-0.30168858010999999
sVseem
p1789
F0.40546510810800002
sVagain
p1790
F0.689263680534
sVmultipl
p1791
F2.4208546282999999
sVbuilt
p1792
F0.82464247808000002
sVno
p1793
F-0.86192082753199994
sVperform
p1794
F0.44111244683799999
sVmake
p1795
F-0.20613856339299999
sVoffer
p1796
F2.0325678567200001
sVother
p1797
F-0.316919717012
sVyou
p1798
F-1.7450217949928502
sVnoth
p1799
F0.82021442656499999
sVnice
p1800
F-0.29639883466599998
sVeven
p1801
F-0.17904954401981407
sVbuck
p1802
F1.6848437433000001
sVwrong
p1803
F1.59144256822
sVwhy
p1804
F1.2427612719600001
sg74
F-4.7832256793460459
sVappropri
p1805
F4.6327853530200001
sVdon
p1806
F0.0012978587156000001
sVclassi
p1807
F4.7017782245099999
sg20
F-4.9617379171775102
sVso
p1808
F-1.9590995922309189
sVscyth
p1809
F2.84102588379
sVserious
p1810
F2.71586274084
sVthe
p1811
F-5.5256014721057731
sVcame
p1812
F0.73689172952299997
ssI51
(dp1813
Vand
p1814
F-4.2987663213602483
sVrevers
p1815
F4.0827390160999997
sVthen
p1816
F0.228508109412
sVdure
p1817
F1.88551443877
sVdue
p1818
F1.4273325484899999
sVar
p1819
F-1.3312769818538526
sVhave
p1820
F-1.2300879597100001
sVsolder
p1821
F4.0086310439500004
sVclose
p1822
F1.5756444513400001
sVpry
p1823
F5.1436109767899998
sVwire
p1824
F2.0116330066421821
sVhow
p1825
F0.68539520375600005
sVtwo
p1826
F0.35545377204367695
sVlittl
p1827
F0.22389368341711835
sVto
p1828
F-3.7316616663077515
sVother
p1829
F-0.316919717012
sVnotic
p1830
F1.4085903666799999
sVtoo
p1831
F0.25493408975800003
sVnew
p1832
F0.17148553745299999
sVinstal
p1833
F-0.51703200520899995
sVcan
p1834
F-0.68468083236599997
sVcase
p1835
F-0.88894219595900004
sVthem
p1836
F-0.016082688232699999
sVthei
p1837
F-0.45727707470700002
sVdi
p1838
F1.5946323635799999
sVfire
p1839
F2.3991931315100001
sVhazard
p1840
F4.9429402813200003
sVgaug
p1841
F4.0827390160999997
sVfan
p1842
F-0.99531526199700004
sVfrai
p1843
F5.9545411929999998
sVsomewhat
p1844
F2.2532392188900001
sVveri
p1845
F-0.72348640678800002
sVspark
p1846
F4.5076222100700001
sVan
p1847
F-0.67383081634200004
sVwith
p1848
F-2.5713317108579283
sg74
F-4.3741927762290018
sVon
p1849
F-2.6084354515797172
sVshort
p1850
F1.5693944309900001
sg20
F-1.77727987381
sVof
p1851
F-1.58235593656
sVwork
p1852
F-1.0382443351599999
sVquiet
p1853
F-0.21506953948800001
sVeasili
p1854
F1.2031085000399999
sVthin
p1855
F2.7356653681399998
sVeach
p1856
F1.8940981824600001
sVsmall
p1857
F0.89036513197900002
sVthe
p1858
F-3.1758119155107023
ssI52
(dp1859
Vblow
p1860
F3.1146751927044312
sg74
F-1.8330482808399999
sVnone
p1861
F-0.87010417925600003
sVthem
p1862
F-0.016082688232699999
sVlike
p1863
F-0.49038466048099999
sVall
p1864
F-0.724115337626
sVit
p1865
F-2.9710790362736348
sVlol
p1866
F2.2974104371999999
sVair
p1867
F0.15620640140600001
sVbare
p1868
F1.9203005548500001
sVcan
p1869
F-0.68468083236599997
sVhear
p1870
F1.57251455833
sVcharm
p1871
F3.44901525601
sVat
p1872
F-0.91421334862900006
ssI53
(dp1873
Vand
p1874
F-1.80144008694
sVright
p1875
F0.42412053376999997
sVjust
p1876
F-0.64838585469200005
sVfeel
p1877
F1.1546269302200001
sVidea
p1878
F2.71586274084
sVcant
p1879
F1.8940981824600001
sVvideo
p1880
F0.39385956198799998
sVout
p1881
F-0.60966688068599995
sVslot
p1882
F0.45226309455800001
sVfor
p1883
F-1.61667495617
sVno
p1884
F-0.86192082753199994
sVbetter
p1885
F0.25660913202500002
sVplace
p1886
F1.2052706630400001
sVyou
p1887
F-1.0306379829400001
sVget
p1888
F-0.72348640678800002
sVfar
p1889
F0.16458102210600001
sVprice
p1890
F-0.52741871139700003
sVit
p1891
F-1.75476714038
sVunderneath
p1892
F3.93963817246
sVwarm
p1893
F2.8521991843899999
sVfan
p1894
F-0.99531526199700004
sVcard
p1895
F-0.31408149372499999
sVcase
p1896
F-0.88894219595900004
sVairflow
p1897
F1.17962823243
sg20
F-1.77727987381
sVair
p1898
F0.15620640140600001
sVso
p1899
F-0.93352145263300002
sVcan
p1900
F-0.68468083236599997
sVpush
p1901
F1.02006725987
sVthe
p1902
F-3.9363370112840608
sVawesom
p1903
F1.19236725821
sVcon
p1904
F0.71809923017300004
ssI54
(dp1905
Vand
p1906
F-1.80144008694
sVall
p1907
F-0.724115337626
sVcheap
p1908
F0.24163381057
sVit
p1909
F-3.6825758845524668
sVif
p1910
F-0.78833944278900003
sVeven
p1911
F-0.105749545034
sVonli
p1912
F-0.436538048535
sVfor
p1913
F-1.61667495617
sVget
p1914
F-0.72348640678800002
sVlol
p1915
F2.2974104371999999
sVgood
p1916
F-1.2158904109133479
sVled
p1917
F0.50457627684600004
sVdirt
p1918
F3.4288125486999999
sVcheaper
p1919
F2.0425181875799998
sVfan
p1920
F-1.6852152296185039
sVask
p1921
F2.1703515590900002
sg74
F-1.8330482808399999
sVnone
p1922
F-0.87010417925600003
sg20
F-3.7298213835801737
sVcould
p1923
F0.26576457470317777
sVwork
p1924
F-1.0382443351599999
sVwell
p1925
F-0.33378194324100002
sg85
F-0.95845035277400004
sVfound
p1926
F1.33942067616
ssI55
(dp1927
Vpoint
p1928
F1.4300389100799999
sVautomat
p1929
F2.9463863994500001
sVat
p1930
F-0.91421334862900006
sVhave
p1931
F-1.2300879597100001
sVin
p1932
F-1.4189900411900001
sVspeed
p1933
F0.35982981340199999
sVwhat
p1934
F-0.135636827041
sVslice
p1935
F5.5490760849000003
sVbuilt
p1936
F0.82464247808000002
sVself
p1937
F3.53417306435
sVnext
p1938
F1.41925713448
sVregul
p1939
F4.3963965749599998
sVthei
p1940
F-0.45727707470700002
sVthat
p1941
F-1.2350038327299999
sVfan
p1942
F-0.99531526199700004
sVbread
p1943
F6.6476883735600003
sVnone
p1944
F-0.87010417925600003
sVtemp
p1945
F0.61700311330199997
sg85
F-0.95845035277400004
sVadjust
p1946
F2.0032974744200001
sVcan
p1947
F-0.68468083236599997
sVthi
p1948
F-1.52757773055
ssI56
(dp1949
Vblue
p1950
F0.79548589378900003
sVnone
p1951
F-0.87010417925600003
sVcolor
p1952
F1.4519575957899999
sVmove
p1953
F0.734185367925
sVwell
p1954
F-0.33378194324100002
sVgreat
p1955
F-0.82906709323600003
sVair
p1956
F0.15620640140600001
sVveri
p1957
F-0.72348640678800002
ssI57
(dp1958
Vand
p1959
F-1.80144008694
sVterribl
p1960
F2.57866161933
sVit
p1961
F-2.9710790362736348
sVmonth
p1962
F0.55637849148600005
sVdown
p1963
F0.46147974966299998
sVcook
p1964
F4.3963965749599998
sVfor
p1965
F-1.61667495617
sVno
p1966
F-0.86192082753199994
sg280
F-0.53047564920000001
sg526
F0.043067271591899998
sVlow
p1967
F0.40643834419500002
sVcan
p1968
F-0.68468083236599997
sVfar
p1969
F0.16458102210600001
sVprice
p1970
F-0.52741871139700003
sVfan
p1971
F-0.99531526199700004
sVnot
p1972
F-1.2455104959800001
sVcool
p1973
F-0.36217212835599999
sVme
p1974
F-0.31974990757999999
sVon
p1975
F-1.54058399738
sVgreat
p1976
F-0.82906709323600003
sVof
p1977
F-1.58235593656
sVus
p1978
F-0.85090446715400003
sVso
p1979
F-0.93352145263300002
sg52
F-1.10765043928
sVproblem
p1980
F-0.26405892668800002
sVloud
p1981
F0.82909022447900005
ssI58
(dp1982
Vnone
p1983
F-0.87010417925600003
sVled
p1984
F0.50457627684600004
sVpower
p1985
F-0.50965762674799997
sVgive
p1986
F0.84556999818599998
sVover
p1987
F0.17379767721100001
sVquiet
p1988
F-0.21506953948800001
sVbut
p1989
F-1.2736658197599999
sVar
p1990
F-0.78627363122299998
sVnot
p1991
F-1.2455104959800001
sVrun
p1992
F-0.63918803818699998
sVglow
p1993
F2.9841267274300001
sVnice
p1994
F-0.29639883466599998
ssI59
(dp1995
Vblow
p1996
F1.83957734358
sVgreat
p1997
F-0.82906709323600003
sVlook
p1998
F-0.45645571942399998
sVdoesn
p1999
F0.50996131947699996
sVbut
p2000
F-1.2736658197599999
sVair
p2001
F0.15620640140600001
sVenough
p2002
F0.44111244683799999
sVmuch
p2003
F0.1030573622
sg52
F-1.10765043928
sVstill
p2004
F0.090910017405299998
ssI60
(dp2005
Vall
p2006
F-0.724115337626
sVelit
p2007
F3.7854874926300002
sVgo
p2008
F-0.2759917822266853
sVdisk
p2009
F2.14787870323
sVevga
p2010
F1.43547370607
sVlittl
p2011
F0.13223521616299999
sVto
p2012
F-3.7316616663077515
sVboard
p2013
F-0.63413364894695445
sVgtx
p2014
F1.27009782612
sVuseless
p2015
F2.4810231497599999
sVthen
p2016
F0.228508109412
sVthei
p2017
F-0.45727707470700002
sVread
p2018
F0.96751576454599997
sVddr3
p2019
F0.95564115512600001
sVnot
p2020
F-1.2455104959800001
sVssd
p2021
F1.1733190632299999
sVcooler
p2022
F0.09832846347742609
sVmicro
p2023
F2.1368288670500002
sV1600mhz
p2024
F2.7061065658899999
sVright
p2025
F0.42412053376999997
sVcabl
p2026
F0.083127876963199995
sVdownload
p2027
F2.3235557173100001
sVout
p2028
F-0.60966688068599995
sVasu
p2029
F0.82051354203191484
sVreview
p2030
F0.53733029651499997
sVenough
p2031
F0.44111244683799999
sV520
p2032
F5.0382504611299996
sVawai
p2033
F1.2609023590299999
sVbe
p2034
F-0.92094912539100005
sVwa
p2035
F-1.734017085640513
sVweak
p2036
F2.9841267274300001
sVsuper
p2037
F1.69186131596
sVbox
p2038
F0.60268305952699996
sVgreat
p2039
F-0.82906709323600003
sVwouldnt
p2040
F3.5566459202099998
sVof
p2041
F-2.6791614926288556
sVcould
p2042
F0.15696483906100001
sV16gig
p2043
F4.9429402813200003
sg85
F-0.95845035277400004
sVgene
p2044
F3.9735397241400001
sVonto
p2045
F2.7257150372800001
sV430
p2046
F4.0827390160999997
sVfirst
p2047
F0.10883406396948435
sVload
p2048
F0.55751035351900002
sVextra
p2049
F0.96751576454599997
sV570
p2050
F2.8299760476100002
sVwatt
p2051
F1.7763151468
sV2600k
p2052
F1.76488645098
sVcorsair
p2053
F1.7399389335062314
sVcome
p2054
F0.26704969596425004
sVfast
p2055
F0.39964549905500002
sVwebsit
p2056
F2.0729773950600001
sVmaster
p2057
F2.7830972473585782
sV650
p2058
F3.5566459202099998
sVmore
p2059
F-0.41707065422799999
sVthat
p2060
F-2.9470826820050515
sVhs
p2061
F3.7854874926300002
sVbut
p2062
F-2.1565036917022153
sVani
p2063
F-0.062225536966799999
sVwith
p2064
F-2.5713317108579283
sVthan
p2065
F-0.31550161230700002
sVwork
p2066
F-2.1788723204068279
sVup
p2067
F-0.62679118521099997
sVus
p2068
F-1.7857185712519748
sVn
p2069
F2.4208546282999999
sVwill
p2070
F-0.44861901196300003
sVmaximux
p2071
F6.2422232654599998
sVz
p2072
F3.1819524707600002
sVmy
p2073
F-1.3701135717099999
sV120gb
p2074
F3.2803925435800001
sVand
p2075
F-3.7805243037516325
sVbio
p2076
F0.19248981022299999
sVis
p2077
F-3.1385552157272381
sVit
p2078
F-4.5789559036011438
sVar
p2079
F-0.78627363122299998
sVcaution
p2080
F4.7758861966600001
sVhave
p2081
F-1.2300879597100001
sVafraid
p2082
F3.6772739079900001
sVsata
p2083
F0.44111244683799999
sVother
p2084
F-0.316919717012
sVtake
p2085
F0.54289514114799997
sVafter
p2086
F-0.0910563626845
sVdriver
p2087
F1.6879917505677227
sVi7
p2088
F0.977807450583
sVdate
p2089
F2.7061065658899999
sVthe
p2090
F-5.7760643926721063
sg74
F-3.8468576478927767
sg20
F-1.77727987381
sVdoa
p2091
F1.4219416998500001
sVso
p2092
F-1.5805892155177885
sVatx
p2093
F1.3369484870199999
sVthi
p2094
F-1.52757773055
sVtime
p2095
F-0.442869365550489
sVsc
p2096
F4.3963965749599998
sVeveryth
p2097
F0.25828698476799999
sVegg
p2098
F0.64999327670499996
sVawesom
p2099
F1.19236725821
ssI61
(dp2100
Vbox
p2101
F1.0204311230093817
sVdo
p2102
F-0.21402296691700001
sVnone
p2103
F-0.87010417925600003
sVfor
p2104
F-1.61667495617
sVagain
p2105
F0.689263680534
sVof
p2106
F-1.58235593656
sVsometh
p2107
F0.914347096666
sVdoa
p2108
F1.4219416998500001
sVcustom
p2109
F1.14235683763
sVto
p2110
F-3.0106811359245844
sVbui
p2111
F-0.170689094268
sVhave
p2112
F-1.2300879597100001
sVnot
p2113
F-1.2455104959800001
sVels
p2114
F1.47720437853
sVwhite
p2115
F2.59590342576
sVnow
p2116
F-0.0122463663922
sVmy
p2117
F-1.3701135717099999
sVout
p2118
F-0.60966688068599995
ssI62
(dp2119
Vye
p2120
F2.16468582155
sVmini
p2121
F3.6940750872022257
sVset
p2122
F0.056700747928100002
sV470mz
p2123
F6.6476883735600003
sVpoint
p2124
F1.4300389100799999
sVmotherboard
p2125
F-0.35704522440408293
sVhyperx
p2126
F3.57963543843
sVis
p2127
F-1.4955383767999999
sVcompat
p2128
F1.65386019778
sVsome
p2129
F-0.14521706374000001
sVit
p2130
F-1.75476714038
sVnt07
p2131
F5.5490760849000003
sVhigh
p2132
F0.35334530712200002
sVnot
p2133
F-1.2455104959800001
sVar
p2134
F-0.78627363122299998
sVright
p2135
F0.42412053376999997
sVat
p2136
F-0.91421334862900006
sVitx
p2137
F2.2470853533200001
sVlian
p2138
F2.5872453630200001
sVseem
p2139
F0.40546510810800002
sVsilverston
p2140
F2.4888052902000002
sVyet
p2141
F0.70488899843700004
sVprobabl
p2142
F1.07553434139
sVcompact
p2143
F2.93411630686
sVfor
p2144
F-2.7372686439211087
sVpc
p2145
F0.66249343946899997
sVperform
p2146
F0.44111244683799999
sVexplain
p2147
F3.44901525601
sVconfigur
p2148
F1.9937280234100001
sVsystem
p2149
F0.0019474202843999999
sVsame
p2150
F0.55073831860900002
sVli
p2151
F2.4810231497599999
sVto
p2152
F-1.7781567783900001
sVblu
p2153
F2.88648825787
sVlga1155
p2154
F4.2497931007599998
sVboard
p2155
F-0.30216808143700002
sVddr3
p2156
F0.95564115512600001
sVforward
p2157
F3.0923403120700002
sVawai
p2158
F1.2609023590299999
sVcase
p2159
F-0.88894219595900004
sVkingston
p2160
F2.0781453652200002
sVthei
p2161
F-0.45727707470700002
sV1155
p2162
F2.44299575417
sVput
p2163
F0.35334530712200002
sVi3
p2164
F1.9426728526099999
sV1156
p2165
F3.12132784895
sV2100t
p2166
F4.1627817237800002
sV4gb
p2167
F1.4630997723400001
sVfan
p2168
F-0.99531526199700004
sVtogeth
p2169
F1.83550401819
sVveri
p2170
F-0.72348640678800002
sVssd
p2171
F1.1733190632299999
sV100
p2172
F1.3644846448300001
sVwith
p2173
F-1.5186699304
sVstai
p2174
F1.35438354884
sg74
F-1.8330482808399999
sVgreat
p2175
F-0.82906709323600003
sVdh61dl
p2176
F6.6476883735600003
sVintel
p2177
F0.33504653487000002
sVsamsung
p2178
F2.6587043270000001
sg20
F-1.77727987381
sVstraight
p2179
F2.6868752039700001
sVwork
p2180
F-1.0382443351599999
sVwell
p2181
F-0.33378194324100002
sVcpu
p2182
F-0.31455509070299997
sVcooler
p2183
F0.058074374517699999
sVq09
p2184
F6.6476883735600003
sVlimit
p2185
F1.83550401819
sVgamer
p2186
F2.3038829517099999
sVthi
p2187
F-1.52757773055
sVthe
p2188
F-1.8756856769300001
sVinter
p2189
F6.2422232654599998
sVprocessor
p2190
F0.89194615997600002
sV64gb
p2191
F3.7573166156700002
ssI63
(dp2192
Vgreat
p2193
F-0.82906709323600003
sVlast
p2194
F0.80414395653199999
sVfor
p2195
F-1.61667495617
sg20
F-1.77727987381
sVmy
p2196
F-1.3701135717099999
sVreview
p2197
F0.53733029651499997
sVmotherboard
p2198
F-0.210876661228
sg526
F0.072919229470234909
sVforgot
p2199
F3.93963817246
sVthe
p2200
F-1.8756856769300001
sVegg
p2201
F1.3640838780447642
ssI64
(dp2202
Vand
p2203
F-3.0501032041501239
sVis
p2204
F-1.4955383767999999
sVram
p2205
F-0.0058196090532599996
sVrealli
p2206
F-0.17014219789099999
sVenjoi
p2207
F3.2803925435800001
sVoverclock
p2208
F0.228508109412
sVin
p2209
F-1.4189900411900001
sVout
p2210
F-0.60966688068599995
sVevga
p2211
F1.43547370607
sVonli
p2212
F-0.436538048535
sVmultipl
p2213
F2.4208546282999999
sVeasi
p2214
F-0.026241505757699998
sValso
p2215
F0.100902962803
sV950
p2216
F3.2464909919
sVhad
p2217
F-0.75811119482
sg280
F-0.53047564920000001
sVto
p2218
F-3.7316616663077515
sVlaid
p2219
F3.3705436405700002
sVboard
p2220
F-0.51161503514026452
sV7
p2221
F0.36075961356199998
sVbreez
p2222
F2.8190469770700002
sVbio
p2223
F0.32591357946559141
sVasu
p2224
F0.390979099123
sVgreat
p2225
F-0.82906709323600003
sVi7
p2226
F0.977807450583
sVjob
p2227
F1.2360423217100001
sVbui
p2228
F-0.170689094268
sVeas
p2229
F2.7061065658899999
sVwith
p2230
F-2.5713317108579283
sg74
F-3.1036205285345009
sVon
p2231
F-1.54058399738
sVnone
p2232
F-0.87010417925600003
sg20
F-3.009196407407337
sVof
p2233
F-1.58235593656
sVwell
p2234
F-0.33378194324100002
sVus
p2235
F-1.7857185712519748
sVissu
p2236
F0.135200377713
sVdid
p2237
F0.31796746804100001
sV2000
p2238
F3.0233474405899998
sVmhz
p2239
F2.3368892481799999
sVthi
p2240
F-2.5864139275668925
sVextrem
p2241
F1.13830003694
sVthe
p2242
F-3.9363370112840608
sVmy
p2243
F-1.3701135717099999
ssI65
(dp2244
Vmonth
p2245
F0.55637849148600005
sVnot
p2246
F-1.2455104959800001
sVgo
p2247
F-0.16300519257599999
sVslot
p2248
F0.45226309455800001
sVonli
p2249
F-0.73912316608417583
sVeasi
p2250
F-0.026241505757699998
sVwith
p2251
F-2.5713317108579283
sVhad
p2252
F-0.75811119482
sVfriendli
p2253
F2.9219949463299999
sVshould
p2254
F0.45022643397599998
sVto
p2255
F-1.7781567783900001
sVpci
p2256
F1.0947287886399999
sVbio
p2257
F0.19248981022299999
sVdai
p2258
F0.61580191195599998
sVgame
p2259
F0.20993672382699999
sVfan
p2260
F-0.99531526199700004
sVknow
p2261
F0.52300498266899997
sVveri
p2262
F-0.72348640678800002
sVnow
p2263
F-0.0122463663922
sVcool
p2264
F-0.36217212835599999
sVlike
p2265
F-0.49038466048099999
sVbad
p2266
F0.98273794779434609
sVex
p2267
F3.7032493943999998
sVblue
p2268
F0.79548589378900003
sVfor
p2269
F-4.5133676175514479
sg280
F-0.53047564920000001
sVgot
p2270
F0.072612532963700002
sVfull
p2271
F0.68282450825300001
sVadvanc
p2272
F2.9841267274300001
sVnever
p2273
F0.40741252839300002
sVpata
p2274
F4.2963131164000004
sVon
p2275
F-3.6762869057794347
sVgreat
p2276
F-0.82906709323600003
sVthing
p2277
F0.12559557539300001
sg85
F-0.95845035277400004
sVor
p2278
F-0.46055576616799998
sVatx
p2279
F1.3369484870199999
sVown
p2280
F1.06043971516
sVfantast
p2281
F2.4208546282999999
sVve
p2282
F0.243286703508
sVfrom
p2283
F-0.535043605373
sVmemori
p2284
F0.34690257889999998
sVtwo
p2285
F0.35545377204367695
sVnext
p2286
F1.41925713448
sVtoo
p2287
F0.25493408975800003
sVmore
p2288
F-0.41707065422799999
sVoption
p2289
F1.8833291765974778
sVthat
p2290
F-1.2350038327299999
sVpeopl
p2291
F1.8502588444182193
sVbut
p2292
F-1.2736658197599999
sVbui
p2293
F-0.170689094268
sVha
p2294
F-0.45316353538100002
sVsysfan
p2295
F5.0382504611299996
sVthan
p2296
F-0.31550161230700002
sVcase
p2297
F-0.88894219595900004
sVthese
p2298
F0.021633095355399999
sVbudget
p2299
F2.749345687603967
sVus
p2300
F-0.85090446715400003
sVdefin
p2301
F3.9735397241400001
sVlimit
p2302
F1.83550401819
sVproblem
p2303
F-0.26405892668800002
sVmy
p2304
F-1.3701135717099999
sVconnect
p2305
F1.5372006406854903
sVand
p2306
F-1.80144008694
sVhave
p2307
F-1.2300879597100001
sVit
p2308
F-4.1873909321672702
sViv
p2309
F2.3169550332800002
sVim
p2310
F1.9203005548500001
sVdual
p2311
F1.11035410654
sVin
p2312
F-1.4189900411900001
sVneed
p2313
F-0.30168858010999999
sVid
p2314
F2.2168715747199998
sVno
p2315
F-0.86192082753199994
sVsata
p2316
F0.44111244683799999
sVbuild
p2317
F-0.057720509799098776
sVsingl
p2318
F1.4630997723400001
sVnice
p2319
F-0.29639883466599998
sVeven
p2320
F-0.105749545034
sVproduct
p2321
F0.48017188267499999
sVgigabyt
p2322
F1.2052706630400001
sVthough
p2323
F0.67006923327699996
sVprice
p2324
F-0.52741871139700003
sVwho
p2325
F2.107986850346065
sVbefor
p2326
F0.64627349560199998
sVuser
p2327
F2.0081167608600001
sVconsid
p2328
F1.47436749719
sVsuch
p2329
F1.65725578678
sV3gb
p2330
F3.1067290495300002
sg74
F-5.1174298955872768
sVmobo
p2331
F0.78484056808642766
sg20
F-1.77727987381
sVcolour
p2332
F5.0382504611299996
ssI66
(dp2333
Vand
p2334
F-1.80144008694
sVr6850
p2335
F5.9545411929999998
sV6850
p2336
F3.4906879524100001
sVbio
p2337
F0.19248981022299999
sVover
p2338
F0.17379767721100001
sVpro
p2339
F1.3053541216
sVrealli
p2340
F-0.17014219789099999
sVfreezer
p2341
F3.93963817246
sVsuppli
p2342
F0.23833619834899999
sVcyclon
p2343
F4.7017782245099999
sVinstal
p2344
F-0.51703200520899995
sVtsstcorp
p2345
F6.2422232654599998
sVclock
p2346
F1.5693944309900001
sVp7p755d
p2347
F6.2422232654599998
sVmsi
p2348
F1.30774933232
sVeasi
p2349
F-0.026241505757699998
sVfew
p2350
F0.69314718056000002
sVthat
p2351
F-1.2350038327299999
sVrev
p2352
F3.12132784895
sVmid
p2353
F1.5326930641400001
sVhaf
p2354
F2.2470853533200001
sVcompon
p2355
F1.27705034544
sVto
p2356
F-3.7316616663077515
sg280
F-0.53047564920000001
sg10
F-0.54486983712000003
sVmaster
p2357
F1.6437420676200001
sV922
p2358
F4.2963131164000004
sV650
p2359
F3.5566459202099998
sVpe
p2360
F5.3949254050700004
sV10ghz
p2361
F5.9545411929999998
sVcool
p2362
F-0.36217212835599999
sVeasier
p2363
F2.3169550332800002
sVlx
p2364
F4.2963131164000004
sg11
F-0.18749621258400001
sVxclio
p2365
F4.5076222100700001
sVtri
p2366
F0.92410327161100003
sVgreatpow
p2367
F6.2422232654599998
sVtower
p2368
F1.27705034544
sVpower
p2369
F-0.50965762674799997
sVget
p2370
F-0.72348640678800002
sVseagat
p2371
F2.2109368391999999
sVarctic
p2372
F2.49664846766
sVi5
p2373
F1.13627779155
sVtook
p2374
F1.1403263800800001
sVbut
p2375
F-1.2736658197599999
sVintel
p2376
F0.33504653487000002
sVrw
p2377
F3.3895918355400001
sV1tb
p2378
F2.18178025491
sVnot
p2379
F-1.2455104959800001
sV550w
p2380
F3.8750996513199998
sVbe
p2381
F-0.92094912539100005
sV2ghz
p2382
F2.8190469770700002
sVthe
p2383
F-1.8756856769300001
sVhd
p2384
F0.98646551332599997
sg175
F0.71809923017300004
sg74
F-3.1036205285345009
sV1gb
p2385
F2.2288477657699999
sVe
p2386
F1.4300389100799999
sVcouldn
p2387
F1.6107357711500001
sVcooler
p2388
F0.09832846347742609
sVdvd
p2389
F1.2405166021
sVsetup
p2390
F1.0698471222599999
sVwork
p2391
F-1.0382443351599999
sVoc
p2392
F0.95564115512600001
sg2221
F0.36075961356199998
sg85
F-1.6227975125059833
sg52
F-1.10765043928
sVproblem
p2393
F-0.26405892668800002
sVcore
p2394
F0.442121019793
sVcpu
p2395
F-0.31455509070299997
sVatx
p2396
F1.3369484870199999
sVradeon
p2397
F1.7686815219500001
ssI67
(dp2398
Vand
p2399
F-3.0501032041501239
sVall
p2400
F-0.724115337626
sVis
p2401
F-1.4955383767999999
sVsome
p2402
F-0.14521706374000001
sVconnect
p2403
F0.90789546138400001
sVopen
p2404
F1.2472657840800001
sVport
p2405
F0.71677032632299997
sVfor
p2406
F-2.7372686439211087
sVmedia
p2407
F2.35040296734
sVversion
p2408
F1.6709546311400001
sVbuild
p2409
F-0.027504132188100001
sVsave
p2410
F1.75358689572
sVbox
p2411
F0.60268305952699996
sVplenti
p2412
F0.96581073429499997
sVget
p2413
F-0.72348640678800002
sVi3
p2414
F1.9426728526099999
sV2100t
p2415
F4.1627817237800002
sVhtpc
p2416
F1.5787841713399999
sVwith
p2417
F-1.5186699304
sg74
F-1.8330482808399999
sVnone
p2418
F-0.87010417925600003
sVsolid
p2419
F0.82021442656499999
sVof
p2420
F-1.58235593656
sVcash
p2421
F3.7299176414800002
sVus
p2422
F-0.85090446715400003
sVserver
p2423
F1.6813533383599999
sVthing
p2424
F0.12559557539300001
sVthi
p2425
F-1.52757773055
sVrock
p2426
F1.96093820058
sVthe
p2427
F-3.1758119155107023
ssI68
(dp2428
Vcontrol
p2429
F0.69574458461800004
sVsoftwar
p2430
F1.5662840085800001
sVset
p2431
F0.096002711490102685
sVis
p2432
F-1.4955383767999999
sVautomat
p2433
F2.9463863994500001
sVyourself
p2434
F2.9713877016599999
sVdesign
p2435
F0.64751188585300001
sVin
p2436
F-1.4189900411900001
sVspeed
p2437
F0.35982981340199999
sVnois
p2438
F0.79261645136100001
sVno
p2439
F-0.86192082753199994
sVto
p2440
F-3.0106811359245844
sVyou
p2441
F-1.0306379829400001
sVbio
p2442
F0.19248981022299999
sVunless
p2443
F1.75358689572
sVtool
p2444
F1.8812500399800001
sVproblem
p2445
F-0.26405892668800002
sVfan
p2446
F-0.99531526199700004
sVnot
p2447
F-1.2455104959800001
sVtoler
p2448
F3.9068483496400002
sVha
p2449
F-0.45316353538100002
sVwith
p2450
F-1.5186699304
sVby
p2451
F0.220391181731
sVugli
p2452
F3.3895918355400001
sVwork
p2453
F-1.0382443351599999
sVup
p2454
F-0.62679118521099997
sVcan
p2455
F-0.68468083236599997
sVthe
p2456
F-1.8756856769300001
sVcpu
p2457
F-0.31455509070299997
ssI69
(dp2458
g74
F-1.8330482808399999
sVon
p2459
F-2.6084354515797172
sVsimplic
p2460
F5.7313976416900001
sVmemori
p2461
F0.58735712339350898
sVoptim
p2462
F3.8144750295100001
sV1600
p2463
F1.29346337508
sVsupport
p2464
F0.50457627684600004
sVspot
p2465
F2.7457157039900002
sVmhz
p2466
F2.3368892481799999
sVoverclock
p2467
F0.228508109412
sVabil
p2468
F2.6773964600100002
sVnot
p2469
F-1.2455104959800001
sVthe
p2470
F-1.8756856769300001
sVtrue
p2471
F2.64035518833
sVcpu
p2472
F-0.31455509070299997
ssI70
(dp2473
Vjust
p2474
F-0.64838585469200005
sVirrit
p2475
F4.0827390160999997
sVreplac
p2476
F0.12854108562300001
sVit
p2477
F-1.75476714038
sVmonth
p2478
F0.55637849148600005
sVsubmit
p2479
F4.0086310439500004
sVissu
p2480
F0.135200377713
sVnow
p2481
F-0.0122463663922
sVfrom
p2482
F-0.535043605373
sVto
p2483
F-1.7781567783900001
sVanoth
p2484
F0.42809273363
sVreview
p2485
F0.53733029651499997
sVhad
p2486
F-0.75811119482
sVsame
p2487
F0.55073831860900002
sVmanufactur
p2488
F1.49151077418
sVfew
p2489
F0.69314718056000002
sVmuch
p2490
F0.1030573622
sVboard
p2491
F-0.63413364894695445
sVbe
p2492
F-0.92094912539100005
sVlife
p2493
F2.1933410773099999
sVnever
p2494
F0.40741252839300002
sVan
p2495
F-0.67383081634200004
sVpower
p2496
F-1.0695737585067775
sVafter
p2497
F-0.0910563626845
sVstop
p2498
F3.1216001396990003
sVnone
p2499
F-0.87010417925600003
sVme
p2500
F-0.31974990757999999
sVentir
p2501
F2.3038829517099999
sV2nd
p2502
F2.4656382309199998
sVwith
p2503
F-1.5186699304
sg74
F-1.8330482808399999
sVon
p2504
F-3.2330885086271075
sVexperienc
p2505
F3.1067290495300002
sVanyth
p2506
F0.989949837409
sg20
F-1.77727987381
sVwill
p2507
F-0.44861901196300003
sg85
F-0.95845035277400004
sVwrite
p2508
F2.39207566375
sVso
p2509
F-0.93352145263300002
sVthi
p2510
F-1.52757773055
sVmy
p2511
F-1.3701135717099999
sVsometh
p2512
F0.914347096666
sVfirst
p2513
F0.064279151404599999
ssI71
(dp2514
Vload
p2515
F0.94394708319367338
sVoper
p2516
F3.4330752982666626
sVnone
p2517
F-0.87010417925600003
sVgood
p2518
F-0.71812446364600002
sVpaus
p2519
F4.7017782245099999
sVand
p2520
F-1.80144008694
sVdevic
p2521
F2.0729773950600001
sVmake
p2522
F-0.20613856339299999
sVhard
p2523
F0.34965866700199999
sVboot
p2524
F0.76297419640200004
sVsystem
p2525
F0.0032972691638971071
sVat
p2526
F-0.91421334862900006
sVdrive
p2527
F-0.13280155437300001
sVwill
p2528
F-0.44861901196300003
sVboard
p2529
F-0.30216808143700002
sVmother
p2530
F2.75586807545
sVit
p2531
F-1.75476714038
sVthe
p2532
F-1.8756856769300001
sVstop
p2533
F1.8436673288300001
sVyour
p2534
F-0.047492305453800003
sVfirst
p2535
F0.064279151404599999
ssI72
(dp2536
Vand
p2537
F-4.2987663213602483
sVpleas
p2538
F1.5756444513400001
sVsai
p2539
F0.53290061042299997
sVwhat
p2540
F-0.135636827041
sVmotherboard
p2541
F-0.210876661228
sVreplac
p2542
F0.12854108562300001
sVis
p2543
F-1.4955383767999999
sVit
p2544
F-3.6825758845524668
sVrealli
p2545
F-0.17014219789099999
sVwarranti
p2546
F3.7749596594756474
sVclear
p2547
F1.97954338841
sVhave
p2548
F-1.2300879597100001
sVyear
p2549
F0.34869469248564117
sVgo
p2550
F-0.2759917822266853
sVnewegg
p2551
F0.38001234059319317
sVlabor
p2552
F5.2613940124400003
sVyet
p2553
F0.70488899843700004
sVif
p2554
F-0.78833944278900003
sVdiffer
p2555
F0.70488899843700004
sVcours
p2556
F2.3302002600299998
sVlocat
p2557
F2.49664846766
sVwa
p2558
F-2.4438957469610263
sVstuck
p2559
F2.49664846766
sVgoe
p2560
F1.8812500399800001
sVwow
p2561
F2.3991931315100001
sVoffer
p2562
F2.0325678567200001
sVcontact
p2563
F1.8770037491
sg280
F-0.89817334979868668
sVbeen
p2564
F0.081719426026199998
sVcustom
p2565
F1.14235683763
sVmanufactur
p2566
F1.49151077418
sVto
p2567
F-4.6399897117825475
sVenough
p2568
F0.44111244683799999
sVain
p2569
F4.7758861966600001
sVleav
p2570
F1.9655571464399999
sVboard
p2571
F-0.63413364894695445
sVhonor
p2572
F3.8443279926599998
sVuntil
p2573
F2.3626428807183979
sVwaranti
p2574
F6.2422232654599998
sVpoor
p2575
F2.0833401821000002
sVgigabyt
p2576
F2.529395824626905
sVthat
p2577
F-2.0910432573675259
sVread
p2578
F0.96751576454599997
sVafter
p2579
F-0.0910563626845
sVdai
p2580
F0.61580191195599998
sVani
p2581
F-0.062225536966799999
sVbui
p2582
F-0.35821023077245423
sVsomebodi
p2583
F4.8559289043399998
sVgoign
p2584
F6.6476883735600003
sVpart
p2585
F0.93560709609199999
sVwith
p2586
F-1.5186699304
sVorigin
p2587
F1.83957734358
sg74
F-4.3741927762290018
sVon
p2588
F-1.54058399738
sVterm
p2589
F3.2137011690800001
sVdon
p2590
F0.0012978587156000001
sVwon
p2591
F1.28639620785
sg20
F-4.9617379171775102
sVwhole
p2592
F2.0990885390599998
sVrethink
p2593
F5.3949254050700004
sV30
p2594
F1.5001938967499999
sg728
F0.069483691232509845
sVup
p2595
F-0.62679118521099997
sVdoe
p2596
F0.15242281762599999
sVthing
p2597
F0.12559557539300001
sg85
F-0.95845035277400004
sVstupid
p2598
F3.1977008277299999
sVplace
p2599
F1.2052706630400001
sg52
F-2.3245288234216379
sVthi
p2600
F-3.2057933972279731
sVof
p2601
F-1.58235593656
sVthe
p2602
F-4.4759381540914047
sVwhere
p2603
F1.9410749982261917
sVorder
p2604
F0.86848925962199996
ssI73
(dp2605
Vand
p2606
F-1.80144008694
sVclaim
p2607
F2.64035518833
sVdeal
p2608
F0.98646551332599997
sVshow
p2609
F1.4972911370899999
sVit
p2610
F-1.75476714038
sVas
p2611
F-1.3347747048823937
sVthrough
p2612
F1.08316796624
sVfine
p2613
F0.45124424576900002
sVyet
p2614
F0.70488899843700004
sVstatu
p2615
F3.65195610001
sVfor
p2616
F-1.61667495617
sVconfirm
p2617
F3.3335023688900001
sVreceiv
p2618
F1.48863307435
sVrepli
p2619
F3.6031659358399999
sVsupport
p2620
F0.50457627684600004
sVthere
p2621
F-0.080940239521400004
sVto
p2622
F-1.7781567783900001
sVboard
p2623
F-0.30216808143700002
sVmsi
p2624
F1.30774933232
sVgot
p2625
F0.15238555398893905
sVshellshock
p2626
F5.3949254050700004
sVdocument
p2627
F2.5872453630200001
sVemail
p2628
F2.2782405210999999
sVsent
p2629
F1.8812500399800001
sVbought
p2630
F-0.0462546815335
sVdeliveri
p2631
F3.0641694351100002
sVrebat
p2632
F3.9760642022217851
sVafter
p2633
F-0.0910563626845
sVwith
p2634
F-1.5186699304
sVnever
p2635
F0.97220621915381333
sVeighti
p2636
F6.6476883735600003
sVwait
p2637
F1.3443834655
sg74
F-3.1036205285345009
sVbuck
p2638
F1.6848437433000001
sVwork
p2639
F-1.0382443351599999
sVup
p2640
F-0.62679118521099997
sVmy
p2641
F-2.3198039309877028
sVcame
p2642
F0.73689172952299997
ssI74
(dp2643
Vvista
p2644
F3.3154838633899999
sVrecogn
p2645
F1.970197526
sVhave
p2646
F-1.2300879597100001
sVsata
p2647
F0.44111244683799999
sVget
p2648
F-0.72348640678800002
sg20
F-1.77727987381
sVdriver
p2649
F0.99695511999700004
sVall
p2650
F-0.724115337626
sVeasi
p2651
F-0.026241505757699998
sVdevic
p2652
F2.0729773950600001
sVwin7
p2653
F2.59590342576
sVto
p2654
F-3.0106811359245844
sVcannot
p2655
F2.0276295750800002
sV64
p2656
F3.0469402731852209
sg2221
F0.36075961356199998
sVinstal
p2657
F-0.51703200520899995
sVnew
p2658
F0.17148553745299999
sVor
p2659
F-0.46055576616799998
sVinstll
p2660
F6.6476883735600003
ssI75
(dp2661
Vand
p2662
F-1.80144008694
sVrefund
p2663
F2.57015092966
sVcapacitor
p2664
F3.1664482842299999
sVfeatur
p2665
F0.79405014336299995
sVtri
p2666
F0.92410327161100003
sVit
p2667
F-1.75476714038
sVheard
p2668
F2.55334381134
sVsecond
p2669
F0.89988901348999994
sVwant
p2670
F0.165345840499
sVinstal
p2671
F-0.51703200520899995
sVbatteri
p2672
F3.7032493943999998
sVhorribl
p2673
F2.64035518833
sVerror
p2674
F1.7878759691999999
sVdevelop
p2675
F4.2053413381900002
sVeasi
p2676
F-0.026241505757699998
sVget
p2677
F-0.72348640678800002
sVhad
p2678
F-1.2835938320604146
sVbad
p2679
F0.58042086303999996
sVsame
p2680
F0.93248103137915328
sVresearch
p2681
F2.3436232803600001
sVto
p2682
F-3.0106811359245844
sVmuch
p2683
F0.1030573622
sVboard
p2684
F-0.51161503514026452
sVtime
p2685
F-0.26156578154299998
sVgot
p2686
F0.072612532963700002
sVbe
p2687
F-1.5593024150949193
sVthat
p2688
F-1.2350038327299999
sVcmo
p2689
F3.0233474405899998
sVafter
p2690
F-0.0910563626845
sVbut
p2691
F-1.2736658197599999
sVbeliev
p2692
F2.2782405210999999
sVnew
p2693
F0.17148553745299999
sVproblem
p2694
F-0.44709062722347254
sg74
F-3.1036205285345009
sg20
F-3.7298213835801737
sVchecksum
p2695
F5.2613940124400003
sVtroubleshoot
p2696
F3.44901525601
sVnear
p2697
F2.2845897487700002
sVcan
p2698
F-0.68468083236599997
sVthi
p2699
F-1.52757773055
sVbuzz
p2700
F3.9068483496400002
sVthe
p2701
F-3.9363370112840608
sVcpu
p2702
F-0.31455509070299997
sVfirst
p2703
F0.064279151404599999
ssI76
(dp2704
Vshow
p2705
F1.4972911370899999
sVboth
p2706
F0.90148518302299996
sVbecaus
p2707
F0.099469270801000001
sVmonth
p2708
F1.1676227393831451
sVkill
p2709
F3.0101022138400002
sVstill
p2710
F0.090910017405299998
sVslot
p2711
F0.45226309455800001
sVevga
p2712
F3.0125027596184566
sVthank
p2713
F1.8770037491
sVsend
p2714
F3.1924534559084932
sVto
p2715
F-4.6399897117825475
sVpci
p2716
F1.0947287886399999
sVboard
p2717
F-0.72106198884352912
sVbio
p2718
F0.32591357946559141
sVdigit
p2719
F2.0525685234300002
sVvendor
p2720
F3.7032493943999998
sVthei
p2721
F-0.45727707470700002
sVdai
p2722
F1.042643271011725
sViniti
p2723
F2.2782405210999999
sVlongest
p2724
F4.8559289043399998
sVnot
p2725
F-2.1088325846263563
sVnow
p2726
F-0.0122463663922
sVreload
p2727
F4.9429402813200003
sVbad
p2728
F0.58042086303999996
sg52
F-1.10765043928
sVeach
p2729
F1.8940981824600001
sVx
p2730
F2.8048926292080187
sVwent
p2731
F0.96071301722400004
sg2386
F2.4212663486929693
sVmotherboard
p2732
F-0.44254835264638276
sVreplac
p2733
F0.26975790188716753
sVback
p2734
F0.078908461420499995
sVcrop
p2735
F5.9545411929999998
sVintern
p2736
F2.1204797290399999
sVacual
p2737
F6.6476883735600003
sVfail
p2738
F1.2609023590299999
sVport
p2739
F0.71677032632299997
sVout
p2740
F-1.0322557601142774
sVbottom
p2741
F1.27009782612
sVrev
p2742
F6.5504569807684687
sVper
p2743
F2.7257150372800001
sg280
F-1.1132627162503135
sVturnaround
p2744
F5.0382504611299996
sVnew
p2745
F0.17148553745299999
sVrun
p2746
F-1.0822394247039617
sVwa
p2747
F-2.6724256320011297
sVsolv
p2748
F3.0101022138400002
sVby
p2749
F0.220391181731
sVdead
p2750
F3.0804690357658955
sVwait
p2751
F1.3443834655
sVplug
p2752
F1.01468608097
sVon
p2753
F-2.6084354515797172
sVabout
p2754
F-0.49587349389870861
sVactual
p2755
F0.93066067215699999
sVof
p2756
F-1.58235593656
sVmemori
p2757
F0.34690257889999998
sVo
p2758
F4.6574830081887457
sVos
p2759
F2.0178255749799998
sVand
p2760
F-3.7805243037516325
sVpoint
p2761
F1.4300389100799999
sVinto
p2762
F0.44111244683799999
sVinstruct
p2763
F1.7240644564600001
sVprimari
p2764
F6.4093874751914219
sVfrom
p2765
F-0.535043605373
sVwould
p2766
F-0.82085329300452003
sVstart
p2767
F0.88721055523100001
sVcaught
p2768
F3.9068483496400002
sVthere
p2769
F-0.080940239521400004
sVsystem
p2770
F0.0019474202843999999
sVleast
p2771
F1.41657975671
sVnext
p2772
F1.41925713448
sVfew
p2773
F0.69314718056000002
sg10
F-0.54486983712000003
sVrecommend
p2774
F0.77416312432000001
sVbrick
p2775
F4.1219597292600003
sVfinal
p2776
F1.8035012871
sVswap
p2777
F4.3830821434382825
sVthat
p2778
F-2.5917942199193926
sVrelat
p2779
F3.2137011690800001
sVbut
p2780
F-2.1565036917022153
sVwestern
p2781
F2.35040296734
sVlast
p2782
F1.9189241890009501
sVline
p2783
F1.6205237775200001
sVha
p2784
F-0.45316353538100002
sViii
p2785
F2.3368892481799999
sVthan
p2786
F-0.31550161230700002
sVgracious
p2787
F5.7313976416900001
sVup
p2788
F-1.0612497280398312
sVuntil
p2789
F1.39541494552
sVwill
p2790
F-0.44861901196300003
sVmatter
p2791
F2.1313494012800001
sVwhile
p2792
F0.678980813578
sVhdd
p2793
F2.2254518176264861
sVnine
p2794
F4.0449986881199997
sVerror
p2795
F1.7878759691999999
sVproblem
p2796
F-0.44709062722347254
sVmore
p2797
F-0.41707065422799999
sVmy
p2798
F-3.2694942902654058
sVcontrol
p2799
F1.4600981350536246
sVpurchas
p2800
F0.95356180057274376
sVhave
p2801
F-1.2300879597100001
sVis
p2802
F-2.5321665860981173
sVit
p2803
F-2.9710790362736348
sVan
p2804
F-1.1408947468638637
sVar
p2805
F-0.78627363122299998
sVat
p2806
F-1.5478977536614578
sVwant
p2807
F0.165345840499
sVagain
p2808
F0.689263680534
sVno
p2809
F-0.86192082753199994
sVanoth
p2810
F0.42809273363
sVboot
p2811
F1.6011870245059134
sV1
p2812
F-0.071647563296906691
sVsata
p2813
F0.74686829567365853
sVother
p2814
F-0.316919717012
sVwhich
p2815
F0.049860775980299997
sg53
F2.5648393656600965
sVyou
p2816
F-1.0306379829400001
sVeventu
p2817
F2.88648825787
sVupdat
p2818
F1.7454946790806245
sVweek
p2819
F1.8866720151679373
sVafter
p2820
F-0.19109200169111204
sVnotic
p2821
F1.4085903666799999
sg74
F-5.6447650239235019
sVdon
p2822
F0.0012978587156000001
sg20
F-6.1936544507748472
sg728
F0.069483691232509845
sVdrive
p2823
F-0.45124577382429254
sVissu
p2824
F0.135200377713
sVcombin
p2825
F2.6223366828299999
sVthi
p2826
F-4.2646295942448651
sVtime
p2827
F-0.26156578154299998
sVthe
p2828
F-7.2971145842188214
ssI77
(dp2829
Vslot
p2830
F0.45226309455800001
sVonli
p2831
F-0.436538048535
sVmemori
p2832
F0.34690257889999998
sVcheap
p2833
F0.24163381057
sVdidn
p2834
F0.52191148884799998
sVhad
p2835
F-0.75811119482
sVit
p2836
F-1.75476714038
sVboard
p2837
F-0.30216808143700002
sVrealiz
p2838
F2.4504864258999999
sg52
F-1.10765043928
sVreplac
p2839
F0.12854108562300001
sg10
F-0.54486983712000003
sVnice
p2840
F-0.29639883466599998
ssI78
(dp2841
Vyet
p2842
F0.70488899843700004
sVdecid
p2843
F1.81140646661
sVcrossfir
p2844
F1.97954338841
sVthank
p2845
F1.8770037491
sVfix
p2846
F1.41657975671
sVhad
p2847
F-1.2835938320604146
sVto
p2848
F-3.7316616663077515
sVoffic
p2849
F2.71586274084
sVboard
p2850
F-0.63413364894695445
sVthen
p2851
F0.228508109412
sVthem
p2852
F-0.016082688232699999
sVeveri
p2853
F1.19236725821
sVget
p2854
F-0.72348640678800002
sVstop
p2855
F1.8436673288300001
sVknow
p2856
F0.52300498266899997
sVcool
p2857
F-0.36217212835599999
sVdid
p2858
F0.31796746804100001
sVgui
p2859
F2.0032974744200001
sV3d
p2860
F3.0923403120700002
sVmean
p2861
F1.5089530768399999
sVsome
p2862
F-0.14521706374000001
sVrma
p2863
F0.64875181161700002
sVexpect
p2864
F0.68282450825300001
sVbest
p2865
F0.772757642711
sVwhat
p2866
F-0.22965311128456611
sVfor
p2867
F-3.8578623316722176
sVreboot
p2868
F2.2532392188900001
sVbought
p2869
F-0.0462546815335
sVbe
p2870
F-0.92094912539100005
sVasu
p2871
F0.93299121955294972
sVbytw
p2872
F6.6476883735600003
sVon
p2873
F-1.54058399738
sVwai
p2874
F0.78309595465980864
sVof
p2875
F-1.58235593656
sVglade
p2876
F6.2422232654599998
sVkeep
p2877
F0.35426909471700002
sVissu
p2878
F0.22891413833540564
sVlifetim
p2879
F3.1067290495300002
sVor
p2880
F-0.46055576616799998
sVcan
p2881
F-0.68468083236599997
sVbro
p2882
F5.9545411929999998
sVnext
p2883
F1.41925713448
sV170
p2884
F5.1436109767899998
sVfrom
p2885
F-0.535043605373
sVwould
p2886
F-0.48480917809700003
sVmark
p2887
F3.05037611297
sVstart
p2888
F0.88721055523100001
sVhei
p2889
F5.9466616355703472
sg11
F-0.18749621258400001
sVpayfor
p2890
F6.6476883735600003
sVthat
p2891
F-1.2350038327299999
sVbut
p2892
F-1.2736658197599999
sVmyself
p2893
F2.3641018116999999
sVevryth
p2894
F6.6476883735600003
sVwork
p2895
F-1.0382443351599999
sVup
p2896
F-1.3153916837126538
sVsli
p2897
F1.1064248284
sVmy
p2898
F-2.8753371784615616
sVand
p2899
F-4.7007460598398181
sVsai
p2900
F0.53290061042299997
sV155
p2901
F6.2422232654599998
sVdo
p2902
F-0.21402296691700001
sVis
p2903
F-1.4955383767999999
sVit
p2904
F-2.9710790362736348
sVhave
p2905
F-1.2300879597100001
sVin
p2906
F-1.4189900411900001
sVif
p2907
F-0.78833944278900003
sVagain
p2908
F0.689263680534
sV44
p2909
F4.3963965749599998
sVboot
p2910
F0.76297419640200004
sVhow
p2911
F0.68539520375600005
sg526
F0.043067271591899998
sVsick
p2912
F4.5076222100700001
sVyou
p2913
F-2.4594056070457002
sVfp
p2914
F2.1991719976200002
sVthi
p2915
F-1.52757773055
sVvantag
p2916
F5.2613940124400003
sVafter
p2917
F-0.0910563626845
sVman
p2918
F3.2803925435800001
sg74
F-3.1036205285345009
sVmobo
p2919
F0.78484056808642766
sVwife
p2920
F3.0781556770799998
sg20
F-4.6377014837259081
sV1366
p2921
F3.0101022138400002
sVjayjai
p2922
F11.255514826934244
sVsandybridg
p2923
F4.1627817237800002
sVthe
p2924
F-3.9363370112840608
ssI79
(dp2925
g74
F-1.8330482808399999
sVnone
p2926
F-0.87010417925600003
sVheatsink
p2927
F0.66123636827900001
sVlike
p2928
F-0.49038466048099999
sVfor
p2929
F-1.61667495617
sg11
F-0.18749621258400001
sg20
F-1.77727987381
sVanoth
p2930
F0.42809273363
sVi5
p2931
F1.13627779155
sVmosfet
p2932
F4.9429402813200003
sVto
p2933
F-1.7781567783900001
sVbui
p2934
F-0.170689094268
sVchamp
p2935
F3.0923403120700002
sVoverclock
p2936
F0.38689786118601133
sVwould
p2937
F-0.48480917809700003
sVmy
p2938
F-1.3701135717099999
sVyet
p2939
F0.70488899843700004
sV5ghz
p2940
F2.7457157039900002
sV2500k
p2941
F1.46590482327
ssI80
(dp2942
Vand
p2943
F-3.7805243037516325
sVeveryth
p2944
F0.25828698476799999
sVag
p2945
F3.05037611297
sVextra
p2946
F0.96751576454599997
sVis
p2947
F-1.4955383767999999
sVit
p2948
F-1.75476714038
sVindic
p2949
F2.95880891945
sVrealli
p2950
F-0.17014219789099999
sVdiagnost
p2951
F4.2497931007599998
sVcrazi
p2952
F3.1361429347300001
sVar
p2953
F-0.78627363122299998
sVin
p2954
F-1.4189900411900001
sVneed
p2955
F-0.30168858010999999
sVlogo
p2956
F3.93963817246
sVstill
p2957
F0.090910017405299998
sVas
p2958
F-0.78833944278900003
sVbunch
p2959
F3.4696345432200002
sVslot
p2960
F0.45226309455800001
sValwai
p2961
F1.1242294530400001
sVfanci
p2962
F3.1819524707600002
sVcome
p2963
F0.15772385238
sVget
p2964
F-0.72348640678800002
sVboot
p2965
F0.76297419640200004
sg52
F-1.10765043928
sVto
p2966
F-1.7781567783900001
sVpci
p2967
F1.0947287886399999
sVboard
p2968
F-0.30216808143700002
sVwide
p2969
F2.7764873626600002
sVshow
p2970
F1.4972911370899999
sVout
p2971
F-0.60966688068599995
sVnice
p2972
F-0.29639883466599998
sVbio
p2973
F0.19248981022299999
sVtruth
p2974
F5.0382504611299996
sVthei
p2975
F-0.45727707470700002
sVthat
p2976
F-1.2350038327299999
sVgener
p2977
F1.95634049133
sVshouldn
p2978
F3.0101022138400002
sVshould
p2979
F0.76229961730002282
sVnot
p2980
F-1.2455104959800001
sVoff
p2981
F0.20993672382699999
sVpost
p2982
F1.25633614105
sVha
p2983
F-0.45316353538100002
sVwith
p2984
F-1.5186699304
sVby
p2985
F0.37315470796811723
sVbe
p2986
F-1.5593024150949193
sg74
F-1.8330482808399999
sVon
p2987
F-2.6084354515797172
sVstone
p2988
F5.1436109767899998
sVgraphic
p2989
F0.84406056393700002
sg2386
F1.4300389100799999
sVmobo
p2990
F0.46353948262599998
sVpossibl
p2991
F1.8314472175000001
sVdefault
p2992
F4.0381704114943524
sVof
p2993
F-3.3207516135117521
sVadopt
p2994
F6.2422232654599998
sVmoment
p2995
F3.0641694351100002
sVuefi
p2996
F2.2168715747199998
sVthi
p2997
F-1.52757773055
sVopinion
p2998
F2.7061065658899999
sVthe
p2999
F-3.9363370112840608
sVmy
p3000
F-1.3701135717099999
sVmaker
p3001
F4.2497931007599998
sVfirst
p3002
F0.064279151404599999
ssI81
(dp3003
Vand
p3004
F-1.80144008694
sVnone
p3005
F-0.87010417925600003
sVgood
p3006
F-0.71812446364600002
sVrun
p3007
F-0.63918803818699998
sV1600
p3008
F1.29346337508
sVprice
p3009
F-0.52741871139700003
sVgreat
p3010
F-0.82906709323600003
sVat
p3011
F-0.91421334862900006
sVyet
p3012
F0.70488899843700004
ssI82
(dp3013
Vpurchas
p3014
F0.56318896048800005
sVcomput
p3015
F0.102338713229
sVpro
p3016
F1.3053541216
sVram
p3017
F-0.0058196090532599996
sVan
p3018
F-1.1408947468638637
sVcorsair
p3019
F0.82909022447900005
sVin
p3020
F-1.4189900411900001
sVskill
p3021
F1.45751316563
sVyet
p3022
F0.70488899843700004
sVconcern
p3023
F2.6313053528100001
sVgiven
p3024
F2.3850084965199998
sVasu
p3025
F0.390979099123
sVfor
p3026
F-1.61667495617
sVperform
p3027
F0.44111244683799999
sVf1a75
p3028
F5.5490760849000003
sVblack
p3029
F0.82021442656499999
sV3850
p3030
F4.7017782245099999
sVmore
p3031
F-0.41707065422799999
sVme
p3032
F-0.31974990757999999
sVhasn
p3033
F2.8299760476100002
sVwd
p3034
F1.6205237775200001
sVwa
p3035
F-1.02413842432
sVthat
p3036
F-1.2350038327299999
sVseason
p3037
F3.1361429347300001
sV8gb
p3038
F1.4059413585
sVabout
p3039
F-0.23628637675299999
sV1tb
p3040
F2.18178025491
sV1866
p3041
F3.3518515075600002
sVa8
p3042
F4.6327853530200001
sVthan
p3043
F-0.31550161230700002
sg74
F-1.8330482808399999
sVstabil
p3044
F2.6680067196600001
sVnone
p3045
F-0.87010417925600003
sg400
F1.3568992734400001
sg20
F-1.77727987381
sVdrop
p3046
F1.45751316563
sV120gb
p3047
F3.2803925435800001
sVissu
p3048
F0.135200377713
sg52
F-1.10765043928
sVforce3
p3049
F5.7313976416900001
sVv
p3050
F2.3850084965199998
sVx650
p3051
F5.9545411929999998
sVthe
p3052
F-1.8756856769300001
sVside
p3053
F0.47286114515299998
ssI83
(dp3054
Vgreat
p3055
F-1.4037326114075628
sVdeal
p3056
F0.98646551332599997
sVfor
p3057
F-2.7372686439211087
sV8gb
p3058
F1.4059413585
sVis
p3059
F-1.4955383767999999
sVnever
p3060
F0.40741252839300002
sVhad
p3061
F-0.75811119482
sVnone
p3062
F-0.87010417925600003
sVani
p3063
F-0.062225536966799999
sVgame
p3064
F0.20993672382699999
sVddr3
p3065
F0.95564115512600001
sVof
p3066
F-1.58235593656
sVproblem
p3067
F-0.26405892668800002
sVspeed
p3068
F0.35982981340199999
sVmultitask
p3069
F4.5076222100700001
sVamaz
p3070
F1.5267050223
ssI84
(dp3071
Vran
p3072
F1.6744088660100001
sVover
p3073
F0.17379767721100001
sVmonth
p3074
F0.55637849148600005
sVat
p3075
F-1.5478977536614578
sVspeed
p3076
F0.60924483404300755
sV24
p3077
F1.5296945611499999
sVfor
p3078
F-3.3927739298003403
sVno
p3079
F-1.4593588190017006
sg10
F-0.54486983712000003
sVvoltag
p3080
F1.3568992734400001
sVstock
p3081
F0.430084766161
sVmemtest
p3082
F3.5121941576300002
sVthat
p3083
F-1.2350038327299999
sVhr
p3084
F3.7032493943999998
sVddr3
p3085
F0.95564115512600001
sVprice
p3086
F-0.52741871139700003
sVnow
p3087
F-0.0122463663922
sVwith
p3088
F-1.5186699304
sVon
p3089
F-1.54058399738
sV1600
p3090
F1.29346337508
sVwork
p3091
F-1.0382443351599999
sVwell
p3092
F-0.33378194324100002
sVthi
p3093
F-1.52757773055
sVerror
p3094
F1.7878759691999999
sVcon
p3095
F0.71809923017300004
ssI85
(dp3096
Vset
p3097
F0.056700747928100002
sVmotherboard
p3098
F-0.210876661228
sVcheap
p3099
F0.24163381057
sVat
p3100
F-0.91421334862900006
sVin
p3101
F-1.4189900411900001
sVinstal
p3102
F-0.51703200520899995
sVspeed
p3103
F0.35982981340199999
sVeasi
p3104
F-0.026241505757699998
sVhad
p3105
F-0.75811119482
sVto
p3106
F-3.7316616663077515
sVbio
p3107
F0.19248981022299999
sVrun
p3108
F-0.63918803818699998
sV1333
p3109
F1.8274068079600001
sVstick
p3110
F0.99695511999700004
sVon
p3111
F-1.54058399738
sVnone
p3112
F-0.87010417925600003
sg20
F-1.77727987381
sVthese
p3113
F0.021633095355399999
sVadjust
p3114
F2.0032974744200001
sVthe
p3115
F-1.8756856769300001
sVmy
p3116
F-1.3701135717099999
sVorder
p3117
F0.86848925962199996
ssI86
(dp3118
Vnone
p3119
F-0.87010417925600003
sg20
F-1.77727987381
sVcheap
p3120
F0.24163381057
sVam
p3121
F0.47807764107200001
sVfast
p3122
F0.39964549905500002
sVbui
p3123
F-0.170689094268
sg10
F-0.54486983712000003
sVmore
p3124
F-0.41707065422799999
ssI87
(dp3125
Vand
p3126
F-3.0501032041501239
sVphotoshop
p3127
F4.0827390160999997
sVhelp
p3128
F1.1733190632299999
sVgive
p3129
F0.84556999818599998
sVcheap
p3130
F0.40912160509455142
sVit
p3131
F-4.1873909321672702
sVrate
p3132
F1.17962823243
sVdoesnt
p3133
F2.4888052902000002
sVat
p3134
F-1.5478977536614578
sVwhen
p3135
F-0.41493161598
sVfast
p3136
F0.39964549905500002
sVhow
p3137
F0.68539520375600005
sVwindow
p3138
F0.45430391159299999
sVmuch
p3139
F0.1030573622
sg2221
F0.36075961356199998
sVgot
p3140
F0.072612532963700002
sVyou
p3141
F-2.1629095361659982
sVadob
p3142
F5.1436109767899998
sVam
p3143
F0.47807764107200001
sVafter
p3144
F-0.0910563626845
sVeffect
p3145
F2.18178025491
sVbecaus
p3146
F0.099469270801000001
sg1335
F0.73960543539400003
sg74
F-1.8330482808399999
sVabout
p3147
F-0.23628637675299999
sVsame
p3148
F0.55073831860900002
sg20
F-1.77727987381
sVus
p3149
F-0.85090446715400003
sVbrag
p3150
F5.7313976416900001
sVcan
p3151
F-0.68468083236599997
sValot
p3152
F2.0475307294
sVtime
p3153
F-0.26156578154299998
sVthe
p3154
F-1.8756856769300001
sVwing
p3155
F5.3949254050700004
ssI88
(dp3156
Vexperienc
p3157
F3.1067290495300002
sVwork
p3158
F-1.0382443351599999
sVcomput
p3159
F0.102338713229
sVno
p3160
F-0.86192082753199994
sg20
F-1.77727987381
sVolder
p3161
F1.6813533383599999
sVwell
p3162
F-0.33378194324100002
sVit
p3163
F-1.75476714038
sVan
p3164
F-0.67383081634200004
sVissu
p3165
F0.135200377713
sVveri
p3166
F-0.72348640678800002
sVstuff
p3167
F1.73871673324
sVthi
p3168
F-1.52757773055
sVin
p3169
F-1.4189900411900001
sVput
p3170
F0.35334530712200002
ssI89
(dp3171
Vold
p3172
F0.92298494826845878
sVis
p3173
F-1.4955383767999999
sVram
p3174
F-0.0058196090532599996
sVit
p3175
F-2.9710790362736348
sVrealli
p3176
F-0.17014219789099999
sVput
p3177
F0.35334530712200002
sVas
p3178
F-1.3347747048823937
sVin
p3179
F-1.4189900411900001
sVcomput
p3180
F0.17327450376581413
sVspeed
p3181
F0.60924483404300755
sVdefinatelli
p3182
F7.3408355541199999
sVwhat
p3183
F-0.135636827041
sVfor
p3184
F-1.61667495617
sVsuppos
p3185
F1.7801539231100001
sVtoo
p3186
F0.25493408975800003
sVtype
p3187
F3.5186059659159614
sVnoth
p3188
F0.82021442656499999
sVnotic
p3189
F1.4085903666799999
sVsoon
p3190
F1.92473515192
sVincreas
p3191
F2.26566173889
sVan
p3192
F-0.67383081634200004
sg74
F-1.8330482808399999
sg20
F-1.77727987381
sVup
p3193
F-0.62679118521099997
sVdoe
p3194
F0.15242281762599999
sVmy
p3195
F-1.3701135717099999
ssI90
(dp3196
Vand
p3197
F-1.80144008694
sVold
p3198
F0.54512977895000003
sVjust
p3199
F-0.64838585469200005
sVit
p3200
F-3.6825758845524668
sVstill
p3201
F0.090910017405299998
sVfine
p3202
F0.45124424576900002
sVoptiplex
p3203
F3.8144750295100001
sVfor
p3204
F-1.61667495617
sV512mb
p3205
F3.3895918355400001
sVwindow
p3206
F0.45430391159299999
sVwhich
p3207
F0.049860775980299997
sVlimit
p3208
F1.83550401819
sV98se
p3209
F7.3408355541199999
sVrun
p3210
F-0.63918803818699998
sVmem
p3211
F2.95880891945
sVdell
p3212
F1.95176382431
sVbut
p3213
F-1.2736658197599999
sVgx150
p3214
F7.3408355541199999
sVha
p3215
F-0.45316353538100002
sg74
F-1.8330482808399999
sg20
F-1.77727987381
sVof
p3216
F-1.58235593656
sVwork
p3217
F-1.0382443351599999
sVus
p3218
F-0.85090446715400003
sVtech
p3219
F1.8314472175000001
sVthi
p3220
F-1.52757773055
sVmy
p3221
F-1.3701135717099999
ssI91
(dp3222
Vand
p3223
F-3.0501032041501239
sVsimpli
p3224
F2.3038829517099999
sVis
p3225
F-1.4955383767999999
sVram
p3226
F-0.0058196090532599996
sVmushkin
p3227
F5.1189721948880855
sVnewegg
p3228
F0.22444141003000001
sVdepend
p3229
F2.43556077568
sVthank
p3230
F1.8770037491
sVmemori
p3231
F0.34690257889999998
sVother
p3232
F-0.316919717012
sVyou
p3233
F-1.0306379829400001
sVvendor
p3234
F3.7032493943999998
sVgreat
p3235
F-0.82906709323600003
sVnot
p3236
F-1.2455104959800001
sVwith
p3237
F-1.5186699304
sV7030
p3238
F7.3408355541199999
sVnone
p3239
F-0.87010417925600003
sVmobo
p3240
F0.46353948262599998
sVdid
p3241
F0.31796746804100001
sVwork
p3242
F-1.7579004688084889
sVms
p3243
F4.1219597292600003
sVmy
p3244
F-1.3701135717099999
ssI92
(dp3245
Vand
p3246
F-1.80144008694
sVrepair
p3247
F3.0233474405899998
sVold
p3248
F0.54512977895000003
sVit
p3249
F-2.9710790362736348
sVas
p3250
F-0.78833944278900003
sVat
p3251
F-0.91421334862900006
sVhave
p3252
F-1.2300879597100001
sVship
p3253
F1.2068654527054277
sVperfect
p3254
F1.1712248216300001
sVfor
p3255
F-3.3927739298003403
sVhad
p3256
F-0.75811119482
sVsystem
p3257
F0.0019474202843999999
sVfast
p3258
F0.39964549905500002
sg280
F-0.53047564920000001
sVnewegg
p3259
F0.22444141003000001
sg526
F0.043067271591899998
sVlol
p3260
F2.2974104371999999
sVmore
p3261
F-0.41707065422799999
sVgood
p3262
F-0.71812446364600002
sVwa
p3263
F-1.02413842432
sVprice
p3264
F-0.52741871139700003
sVgreat
p3265
F-0.82906709323600003
sVsomeon
p3266
F2.1313494012800001
sVbefor
p3267
F0.64627349560199998
sVjob
p3268
F1.2360423217100001
sVveri
p3269
F-0.72348640678800002
sg10
F-0.54486983712000003
sVthose
p3270
F1.16704945022
sg74
F-3.1036205285345009
sVnone
p3271
F-0.87010417925600003
sVdai
p3272
F1.042643271011725
sVlike
p3273
F-0.49038466048099999
sg20
F-1.77727987381
sVup
p3274
F-0.62679118521099997
sVdid
p3275
F0.31796746804100001
sVthi
p3276
F-1.52757773055
sVtime
p3277
F-0.442869365550489
sVmani
p3278
F0.98820615780400001
sVthe
p3279
F-3.1758119155107023
ssI93
(dp3280
Vve
p3281
F0.243286703508
sVjust
p3282
F-0.64838585469200005
sVram
p3283
F-0.0058196090532599996
sVit
p3284
F-3.6825758845524668
sVneed
p3285
F-0.30168858010999999
sVwould
p3286
F-0.48480917809700003
sVno
p3287
F-1.4593588190017006
sVfit
p3288
F0.107380135502
sVgot
p3289
F0.072612532963700002
sVsent
p3290
F1.8812500399800001
sVgood
p3291
F-0.71812446364600002
sVwa
p3292
F-1.02413842432
sVddr2
p3293
F2.1150888804100001
sVddr3
p3294
F0.95564115512600001
sVback
p3295
F0.078908461420499995
sVwrong
p3296
F1.59144256822
sVknow
p3297
F0.52300498266899997
sVlook
p3298
F-0.45645571942399998
sVkind
p3299
F1.7801539231100001
sVlike
p3300
F-0.49038466048099999
sg20
F-3.009196407407337
sVdidn
p3301
F0.88367296584483457
sVus
p3302
F-0.85090446715400003
sVso
p3303
F-0.93352145263300002
sg52
F-1.8754152183129169
sVthi
p3304
F-1.52757773055
sVthe
p3305
F-1.8756856769300001
ssI94
(dp3306
Vand
p3307
F-3.0501032041501239
sVright
p3308
F0.42412053376999997
sVrana
p3309
F5.2613940124400003
sVmonth
p3310
F0.55637849148600005
sVin
p3311
F-1.4189900411900001
sVrepost
p3312
F5.7313976416900001
sVboot
p3313
F0.76297419640200004
sg280
F-0.53047564920000001
sVmorn
p3314
F4.2963131164000004
sVboard
p3315
F-0.30216808143700002
sVgot
p3316
F0.072612532963700002
sVmore
p3317
F-0.41707065422799999
sVasu
p3318
F0.390979099123
sV445
p3319
F5.9545411929999998
sVstick
p3320
F1.6879917505677227
sValong
p3321
F2.0885621260799998
sVwith
p3322
F-1.5186699304
sg74
F-1.8330482808399999
sVabout
p3323
F-0.23628637675299999
sVthese
p3324
F0.021633095355399999
sVof
p3325
F-1.58235593656
sVup
p3326
F-0.62679118521099997
sVwill
p3327
F-0.44861901196300003
sVthi
p3328
F-2.5864139275668925
ssI95
(dp3329
Vand
p3330
F-3.0501032041501239
sVinto
p3331
F0.44111244683799999
sVram
p3332
F-0.0058196090532599996
sVcheap
p3333
F0.24163381057
sVveri
p3334
F-1.224968969826548
sVmill
p3335
F4.7017782245099999
sVyour
p3336
F-0.047492305453800003
sVperform
p3337
F0.44111244683799999
sVmake
p3338
F-0.20613856339299999
sVfast
p3339
F0.39964549905500002
sVrecommend
p3340
F0.77416312432000001
sVyou
p3341
F-1.7450217949928502
sVvoltag
p3342
F1.3568992734400001
sVis
p3343
F-1.4955383767999999
sVsure
p3344
F0.50888198855699995
sVrun
p3345
F-1.0822394247039617
sVfar
p3346
F0.16458102210600001
sVrock
p3347
F1.96093820058
sVnot
p3348
F-1.2455104959800001
sVmai
p3349
F0.95732891923899999
sVproblem
p3350
F-0.26405892668800002
sVstabil
p3351
F2.6680067196600001
sVnone
p3352
F-0.87010417925600003
sVsolid
p3353
F0.82021442656499999
sVof
p3354
F-1.58235593656
sVbudget
p3355
F1.6238078527199999
sVus
p3356
F-0.85090446715400003
sVso
p3357
F-0.93352145263300002
sVthi
p3358
F-1.52757773055
sVtime
p3359
F-0.26156578154299998
sVotherwis
p3360
F2.3368892481799999
sVthe
p3361
F-3.1758119155107023
ssI96
(dp3362
Vand
p3363
F-3.0501032041501239
sVpurchas
p3364
F0.56318896048800005
sVcomput
p3365
F0.102338713229
sVreplac
p3366
F0.12854108562300001
sVlaptop
p3367
F3.3335023688900001
sVwithin
p3368
F1.8314472175000001
sVcheap
p3369
F0.24163381057
sVdefect
p3370
F2.23489008022
sVan
p3371
F-0.67383081634200004
sVpackag
p3372
F1.3644846448300001
sVas
p3373
F-0.78833944278900003
sVrma
p3374
F0.64875181161700002
sVin
p3375
F-1.4189900411900001
sVsurpris
p3376
F2.1258997965100002
sVbecaus
p3377
F0.099469270801000001
sVout
p3378
F-0.60966688068599995
sVfrom
p3379
F-0.535043605373
sVcoupl
p3380
F1.63705307947
sVhad
p3381
F-0.75811119482
sVupgrad
p3382
F0.78122031663000002
sg52
F-1.10765043928
sVto
p3383
F-3.0106811359245844
sg10
F-0.54486983712000003
sVawai
p3384
F1.2609023590299999
sVlocal
p3385
F2.9841267274300001
sVmodul
p3386
F2.5617120610100002
sVstore
p3387
F2.55334381134
sVbought
p3388
F-0.0462546815335
sVrun
p3389
F-0.63918803818699998
sVwa
p3390
F-1.02413842432
sVdi
p3391
F1.5946323635799999
sVdai
p3392
F1.042643271011725
sVit
p3393
F-1.75476714038
sVdeploi
p3394
F6.2422232654599998
sVveri
p3395
F-0.72348640678800002
sVsinc
p3396
F0.57695064556099995
sg74
F-3.8468576478927767
sVon
p3397
F-3.2330885086271075
sVrush
p3398
F4.2963131164000004
sVlast
p3399
F0.80414395653199999
sVfor
p3400
F-2.7372686439211087
sg20
F-4.2411129410046744
sVof
p3401
F-4.1290595718248326
sVunfortun
p3402
F2.6680067196600001
sVtech
p3403
F1.8314472175000001
sVcan
p3404
F-0.68468083236599997
sVthi
p3405
F-1.52757773055
sVcorpor
p3406
F5.7313976416900001
sVthe
p3407
F-5.5256014721057731
sVthrew
p3408
F3.62726348742
sVchip
p3409
F1.39541494552
ssI97
(dp3410
Vfew
p3411
F0.69314718056000002
sVthe
p3412
F-1.8756856769300001
sVnow
p3413
F-0.0122463663922
sVbusi
p3414
F2.4208546282999999
sVprocess
p3415
F1.76488645098
sVmayb
p3416
F1.46590482327
sVram
p3417
F-0.0058196090532599996
sVbecaus
p3418
F0.099469270801000001
sVrealli
p3419
F-0.17014219789099999
sVlogan
p3420
F7.3408355541199999
sVar
p3421
F-0.78627363122299998
sVhave
p3422
F-2.0827199608237223
sVin
p3423
F-1.4189900411900001
sVhappen
p3424
F1.6848437433000001
sVcustom
p3425
F1.14235683763
sVsat
p3426
F4.3963965749599998
sV25
p3427
F1.83957734358
sVwhat
p3428
F-0.135636827041
sVor
p3429
F-0.46055576616799998
sVfrom
p3430
F-0.90590757191392302
sVwould
p3431
F-0.48480917809700003
sVinnov
p3432
F4.8559289043399998
sVwow
p3433
F2.3991931315100001
sVthere
p3434
F-0.080940239521400004
sg280
F-0.53047564920000001
sVlong
p3435
F0.74232652550900002
sVnext
p3436
F1.41925713448
sVto
p3437
F-4.6399897117825475
sVreli
p3438
F4.0086310439500004
sVnewegg
p3439
F0.22444141003000001
sVtake
p3440
F0.54289514114799997
sg52
F-1.10765043928
sVgot
p3441
F0.072612532963700002
sVyou
p3442
F-2.689385826678246
sVif
p3443
F-1.3347747048823937
sVdissapoint
p3444
F4.0449986881199997
sVnj
p3445
F5.9545411929999998
sVmyself
p3446
F2.3641018116999999
sVthen
p3447
F0.228508109412
sVdecid
p3448
F1.81140646661
sVtime
p3449
F-0.26156578154299998
sVthei
p3450
F-0.45727707470700002
sVget
p3451
F-0.72348640678800002
sVcould
p3452
F0.15696483906100001
sVusp
p3453
F4.9429402813200003
sVdai
p3454
F1.4694846300674502
sVit
p3455
F-5.1693863280742116
sVby
p3456
F0.220391181731
sVtoo
p3457
F0.25493408975800003
sVsit
p3458
F1.8940981824600001
sVtownship
p3459
F12.429115021412482
sVan
p3460
F-0.67383081634200004
sVwinslow
p3461
F7.3408355541199999
sVlike
p3462
F-0.49038466048099999
sg74
F-4.3741927762290018
sVon
p3463
F-3.2330885086271075
sVnone
p3464
F-0.87010417925600003
sVmade
p3465
F0.79261645136100001
sVoff
p3466
F0.20993672382699999
sVlook
p3467
F-0.45645571942399998
sg20
F-3.7298213835801737
sVservic
p3468
F1.6205237775200001
sVdrop
p3469
F1.45751316563
sVdrive
p3470
F-0.13280155437300001
sVus
p3471
F-0.85090446715400003
sVdoe
p3472
F0.15242281762599999
sVweren
p3473
F3.4090099214
sVso
p3474
F-1.5805892155177885
sVcan
p3475
F-1.1592654209039295
sVlose
p3476
F2.78695866252
sVminut
p3477
F1.7060459509499999
sVmore
p3478
F-0.41707065422799999
sVorder
p3479
F0.86848925962199996
sVchanc
p3480
F2.6680067196600001
sVfor
p3481
F-2.7372686439211087
ssI98
(dp3482
Vand
p3483
F-1.80144008694
sVrespond
p3484
F3.12132784895
sVhad
p3485
F-1.2835938320604146
sVit
p3486
F-1.75476714038
sVim
p3487
F1.9203005548500001
sVhave
p3488
F-1.2300879597100001
sVin
p3489
F-1.4189900411900001
sVsever
p3490
F1.6606629451099999
sVfor
p3491
F-1.61667495617
sVperform
p3492
F0.44111244683799999
sVwhen
p3493
F-0.41493161598
sVto
p3494
F-3.0106811359245844
sVstock
p3495
F0.430084766161
sVgood
p3496
F-0.71812446364600002
sVwa
p3497
F-1.02413842432
sVhp
p3498
F2.5205539885200001
sVhurri
p3499
F5.2613940124400003
sVgreat
p3500
F-0.82906709323600003
sVbut
p3501
F-1.2736658197599999
sVpatienc
p3502
F4.1627817237800002
sVnot
p3503
F-1.2455104959800001
sg74
F-1.8330482808399999
sVnone
p3504
F-0.87010417925600003
sVdoi
p3505
F7.3408355541199999
sV512mb
p3506
F3.3895918355400001
sVmediasmart
p3507
F5.3949254050700004
sVtime
p3508
F-0.26156578154299998
sVimprov
p3509
F2.2288477657699999
sVthe
p3510
F-3.1758119155107023
sVmy
p3511
F-1.3701135717099999
ssI99
(dp3512
Vand
p3513
F-1.80144008694
sVsoftwar
p3514
F1.5662840085800001
sVlove
p3515
F0.85467476517899998
sVit
p3516
F-3.6825758845524668
sVglitch
p3517
F4.0827390160999997
sVrma
p3518
F0.64875181161700002
sVat
p3519
F-0.91421334862900006
sVhave
p3520
F-1.2300879597100001
sVin
p3521
F-1.4189900411900001
sVstill
p3522
F0.090910017405299998
sVwill
p3523
F-0.75957801525074187
sVwould
p3524
F-0.48480917809700003
sVpc
p3525
F1.1216988991763981
sVnb
p3526
F3.7032493943999998
sVdi
p3527
F1.5946323635799999
sVwhen
p3528
F-0.41493161598
sVlol
p3529
F2.2974104371999999
sVsilverston
p3530
F2.4888052902000002
sVstart
p3531
F0.88721055523100001
sVnewegg
p3532
F0.22444141003000001
sVvoltag
p3533
F1.3568992734400001
sVweek
p3534
F1.1142988848399999
sVcase
p3535
F-0.88894219595900004
sVrun
p3536
F-1.0822394247039617
sVwa
p3537
F-1.734017085640513
sVget
p3538
F-0.72348640678800002
sVread
p3539
F0.96751576454599997
sVafter
p3540
F-0.0910563626845
sVproblem
p3541
F-0.26405892668800002
sVbut
p3542
F-1.2736658197599999
sVbecaus
p3543
F0.099469270801000001
sVbui
p3544
F-0.170689094268
sVst1500
p3545
F6.6476883735600003
sVwith
p3546
F-1.5186699304
sVeveryth
p3547
F0.25828698476799999
sVrestart
p3548
F2.6046371057300002
sg74
F-3.8468576478927767
sVon
p3549
F-1.54058399738
sg20
F-4.2411129410046744
sVof
p3550
F-1.58235593656
sVno
p3551
F-1.8088376405176416
sVthought
p3552
F0.98820615780400001
sVthing
p3553
F0.12559557539300001
sVsweat
p3554
F4.0086310439500004
sVthi
p3555
F-1.52757773055
sVtime
p3556
F-0.26156578154299998
sVagain
p3557
F0.689263680534
sVthe
p3558
F-3.1758119155107023
sVmy
p3559
F-2.3198039309877028
ssI100
(dp3560
Vand
p3561
F-1.80144008694
sVpoint
p3562
F1.4300389100799999
sVit
p3563
F-3.6825758845524668
sVan
p3564
F-0.67383081634200004
sVveri
p3565
F-0.72348640678800002
sVsecond
p3566
F1.5236445460074641
sVrma
p3567
F0.64875181161700002
sVsend
p3568
F1.88551443877
sVas
p3569
F-0.78833944278900003
sVend
p3570
F0.83804550820799995
sVfor
p3571
F-1.61667495617
sVno
p3572
F-0.86192082753199994
sVmake
p3573
F-0.20613856339299999
sVhad
p3574
F-0.75811119482
sVtwo
p3575
F0.20993672382699999
sVbeen
p3576
F0.081719426026199998
sVto
p3577
F-3.7316616663077515
sVmuch
p3578
F0.1030573622
sVbuild
p3579
F-0.027504132188100001
sVinstead
p3580
F1.2405166021
sVexperi
p3581
F1.6848437433000001
sVworth
p3582
F1.0548374596100001
sVmore
p3583
F-0.41707065422799999
sVbe
p3584
F-0.92094912539100005
sVshut
p3585
F2.0833401821000002
sVgood
p3586
F-0.71812446364600002
sVpaperweight
p3587
F4.7017782245099999
sVpower
p3588
F-0.50965762674799997
sVafter
p3589
F-0.0910563626845
sVback
p3590
F0.078908461420499995
sVme
p3591
F-0.31974990757999999
sV300w
p3592
F4.0827390160999997
sVdisappoint
p3593
F1.8643720021900001
sVnot
p3594
F-2.1088325846263563
sVthe
p3595
F-3.1758119155107023
sVpsu
p3596
F0.28638589598999997
sg74
F-3.8468576478927767
sVoff
p3597
F0.20993672382699999
sVcoupl
p3598
F1.63705307947
sg20
F-1.77727987381
sVwork
p3599
F-1.0382443351599999
sVup
p3600
F-0.62679118521099997
sVus
p3601
F-1.7857185712519748
sVdoe
p3602
F0.15242281762599999
sVso
p3603
F-0.93352145263300002
sVexpens
p3604
F1.5850933405400001
sVthi
p3605
F-1.52757773055
sVeveryth
p3606
F0.25828698476799999
sVmy
p3607
F-1.3701135717099999
sVor
p3608
F-0.46055576616799998
ssI101
(dp3609
Vload
p3610
F0.55751035351900002
sVand
p3611
F-3.7805243037516325
sVcomput
p3612
F0.21476928118886107
sVjust
p3613
F-0.64838585469200005
sVlook
p3614
F-0.45645571942399998
sVsoon
p3615
F1.92473515192
sVas
p3616
F-1.654418842278766
sVgood
p3617
F-0.71812446364600002
sVcorsair
p3618
F0.82909022447900005
sVin
p3619
F-1.4189900411900001
sVnewegg
p3620
F0.22444141003000001
sVpretti
p3621
F0.46147974966299998
sVfine
p3622
F0.45124424576900002
sVunit
p3623
F1.41925713448
sVout
p3624
F-0.60966688068599995
sVarriv
p3625
F1.94720800777
sV20
p3626
F1.46871776465
sVweight
p3627
F2.6964446549800001
sVwould
p3628
F-0.48480917809700003
sVthing
p3629
F0.12559557539300001
sVfri
p3630
F3.2299616899500001
sVthere
p3631
F-0.080940239521400004
sVto
p3632
F-3.0106811359245844
sVother
p3633
F-0.316919717012
sVtime
p3634
F-0.26156578154299998
sVtest
p3635
F1.7240815115356198
sVnew
p3636
F0.17148553745299999
sVif
p3637
F-0.78833944278900003
sVuntil
p3638
F1.39541494552
sVnice
p3639
F-0.29639883466599998
sg74
F-3.1036205285345009
sVshut
p3640
F2.0833401821000002
sVsure
p3641
F0.50888198855699995
sVreturn
p3642
F1.4006643014
sVwa
p3643
F-2.4438957469610263
sVthat
p3644
F-1.2350038327299999
sVafter
p3645
F-0.0910563626845
sVtook
p3646
F1.1403263800800001
sVbut
p3647
F-1.2736658197599999
sVani
p3648
F-0.062225536966799999
sVpaper
p3649
F2.95880891945
sVprint
p3650
F3.26329811022
sVfan
p3651
F-0.99531526199700004
sVnot
p3652
F-2.6138436325287406
sVoff
p3653
F0.20993672382699999
sVnow
p3654
F-0.0122463663922
sVthan
p3655
F-0.31550161230700002
sVpsu
p3656
F0.68340104870520446
sVbox
p3657
F0.60268305952699996
sVabout
p3658
F-0.23628637675299999
sVcoupl
p3659
F1.63705307947
sg2386
F1.4300389100799999
sVlast
p3660
F0.80414395653199999
sVhour
p3661
F1.4059413585
sVanyth
p3662
F0.989949837409
sVdid
p3663
F0.31796746804100001
sVof
p3664
F-2.6791614926288556
sVcould
p3665
F0.15696483906100001
sVwork
p3666
F-1.7579004688084889
sg20
F-4.2411129410046744
sVbad
p3667
F0.58042086303999996
sVrma
p3668
F1.0984323007224803
sVso
p3669
F-0.93352145263300002
sVinfo
p3670
F3.1067290495300002
sVthi
p3671
F-1.52757773055
sVlearn
p3672
F2.9970301322699999
sVthe
p3673
F-5.7760643926721063
sVmy
p3674
F-2.3198039309877028
sVcpu
p3675
F-0.31455509070299997
ssI102
(dp3676
Vless
p3677
F0.88093109974600003
sVp6x58d
p3678
F4.5076222100700001
sVmonth
p3679
F0.55637849148600005
sV120mm
p3680
F1.27009782612
sVgo
p3681
F-0.16300519257599999
sVfine
p3682
F0.45124424576900002
sVevga
p3683
F1.43547370607
sV23
p3684
F3.4090099214
sg510
F1.171405576956096
sV10666
p3685
F4.4504637962300002
sVpci
p3686
F1.0947287886399999
sVgtx
p3687
F1.27009782612
sVcool
p3688
F-0.36217212835599999
sVpremium
p3689
F2.7764873626600002
sVddr3
p3690
F2.0055202717044112
sVexpress
p3691
F2.9100187552799999
sVhdcp
p3692
F4.7017782245099999
sVsso
p3693
F6.2422232654599998
sVnot
p3694
F-1.2455104959800001
sVbit
p3695
F0.40741252839300002
sVpsu
p3696
F0.28638589598999997
sVintel
p3697
F0.33504653487000002
sVcooler
p3698
F0.058074374517699999
sVpc3
p3699
F3.6031659358399999
sg2730
F2.4667460293071581
sVx16
p3700
F2.6587043270000001
sVhard
p3701
F0.34965866700199999
sVback
p3702
F0.078908461420499995
sVyear
p3703
F0.34869469248564117
sVfail
p3704
F1.2609023590299999
sVwire
p3705
F1.18810285942
sVpower
p3706
F-0.50965762674799997
sVfor
p3707
F-1.61667495617
sV512mb
p3708
F3.3895918355400001
sg280
F-0.89817334979868668
sVbe
p3709
F-0.92094912539100005
sVasu
p3710
F0.390979099123
sV1333
p3711
F1.8274068079600001
sVmodular
p3712
F1.2139663700100001
sV240
p3713
F3.0367704609200001
sVcard
p3714
F-0.31408149372499999
sVcould
p3715
F0.15696483906100001
sg85
F-0.95845035277400004
sVgeforc
p3716
F2.18178025491
sV512
p3717
F3.9735397241400001
sVthink
p3718
F0.45328298245900001
sVsystem
p3719
F0.0019474202843999999
sV256
p3720
F3.7573166156700002
sVunit
p3721
F1.41925713448
sVusb
p3722
F0.63519645926299995
sVto
p3723
F-1.7781567783900001
sVtwo
p3724
F0.20993672382699999
sVreadi
p3725
F2.4656382309199998
sg10
F-0.92254482849188468
sVthat
p3726
F-1.2350038327299999
sVlga
p3727
F2.5617120610100002
sV140mm
p3728
F2.8299760476100002
sVenhanc
p3729
F4.1627817237800002
sVn871
p3730
F6.6476883735600003
sVthan
p3731
F-0.31550161230700002
sVp3
p3732
F4.5076222100700001
sVlook
p3733
F-0.45645571942399998
sVwork
p3734
F-1.0382443351599999
sVx58
p3735
F2.5617120610100002
sVpc
p3736
F0.66249343946899997
sV6gb
p3737
F3.8789655605034419
sVwill
p3738
F-0.44861901196300003
sVnoctua
p3739
F2.8749274354700001
sVsli
p3740
F1.1064248284
sVpin
p3741
F0.80414395653199999
sValmost
p3742
F1.15052014827
sVmushkin
p3743
F3.0233474405899998
sVar
p3744
F-0.78627363122299998
sVd14
p3745
F4.1627817237800002
sVsdram
p3746
F3.2299616899500001
sg2812
F-0.050836087855153346
sVsata
p3747
F0.44111244683799999
sVnice
p3748
F-0.29639883466599998
sVnh
p3749
F3.7573166156700002
sVafter
p3750
F-0.0910563626845
sVblacklin
p3751
F5.2613940124400003
sg20
F-1.77727987381
sV9800
p3752
F4.0827390160999997
sV1366
p3753
F3.0101022138400002
sV2gb
p3754
F2.0178255749799998
sVthi
p3755
F-1.52757773055
sVpush
p3756
F1.02006725987
sVthe
p3757
F-1.8756856769300001
sVcpu
p3758
F-0.31455509070299997
ssI103
(dp3759
Vjust
p3760
F-0.64838585469200005
sVreplac
p3761
F0.217638976708697
sVsome
p3762
F-0.14521706374000001
sVsoon
p3763
F1.92473515192
sVrealli
p3764
F-0.17014219789099999
sVas
p3765
F-1.3347747048823937
sVim
p3766
F1.9203005548500001
sVwant
p3767
F0.165345840499
sVin
p3768
F-2.4025589874834892
sVwhat
p3769
F-0.135636827041
sVfrom
p3770
F-0.535043605373
sVwhen
p3771
F-0.41493161598
sVtwo
p3772
F0.20993672382699999
sVnewegg
p3773
F0.22444141003000001
sVtoo
p3774
F0.25493408975800003
sVshipment
p3775
F4.4504637962300002
sVit
p3776
F-1.75476714038
sVgot
p3777
F0.12294370546080476
sVyou
p3778
F-1.0306379829400001
sVhei
p3779
F3.5121941576300002
sVupdat
p3780
F1.0309172759
sVdo
p3781
F-0.21402296691700001
sVwa
p3782
F-1.02413842432
sVthat
p3783
F-2.0910432573675259
sVbut
p3784
F-2.1565036917022153
sVbecaus
p3785
F0.099469270801000001
sVdock
p3786
F2.8299760476100002
sVplai
p3787
F0.86079099219699995
sVskyrim
p3788
F3.62726348742
sVnot
p3789
F-1.2455104959800001
sVsuck
p3790
F2.4580336315400002
sVcome
p3791
F0.15772385238
sVon
p3792
F-2.6084354515797172
sVpossibl
p3793
F1.8314472175000001
sg20
F-4.2411129410046744
sVegg
p3794
F0.64999327670499996
sVill
p3795
F3.5121941576300002
sVdoa
p3796
F3.3931714601932876
sVupset
p3797
F3.7573166156700002
sVsale
p3798
F2.2974104371999999
sVwill
p3799
F-0.44861901196300003
sVthing
p3800
F0.12559557539300001
sVso
p3801
F-0.93352145263300002
sVcan
p3802
F-1.1592654209039295
sVthi
p3803
F-2.5864139275668925
sVthe
p3804
F-1.8756856769300001
sVmy
p3805
F-1.3701135717099999
sVcame
p3806
F0.73689172952299997
ssI104
(dp3807
Vpin
p3808
F1.3615340727664751
sVconnect
p3809
F0.90789546138400001
sVhave
p3810
F-1.2300879597100001
sVneed
p3811
F-0.30168858010999999
sVperfect
p3812
F1.1712248216300001
sVfor
p3813
F-1.61667495617
sVhopefulli
p3814
F2.4580336315400002
sVthere
p3815
F-0.080940239521400004
sVleast
p3816
F1.41657975671
sVsata
p3817
F0.44111244683799999
sg11
F-0.31745868370226776
sVmore
p3818
F-0.41707065422799999
sVto
p3819
F-1.7781567783900001
sVconvert
p3820
F3.3335023688900001
sVhere
p3821
F1.27705034544
sVon
p3822
F-1.54058399738
sVnone
p3823
F-0.87010417925600003
sg20
F-1.77727987381
sVwish
p3824
F1.07553434139
sVwork
p3825
F-1.0382443351599999
sVwere
p3826
F0.433080275141
sVmy
p3827
F-1.3701135717099999
sVat
p3828
F-0.91421334862900006
ssI105
(dp3829
Vcabl
p3830
F0.083127876963199995
sVnot
p3831
F-1.2455104959800001
sVar
p3832
F-0.78627363122299998
sVgo
p3833
F-0.16300519257599999
sVneed
p3834
F-0.30168858010999999
sVperfect
p3835
F1.1712248216300001
sVeither
p3836
F1.45751316563
sVlot
p3837
F0.19959043177300001
sVyou
p3838
F-1.0306379829400001
sg52
F-1.10765043928
sVprice
p3839
F-0.52741871139700003
sVgreat
p3840
F-1.4037326114075628
sVwrong
p3841
F1.59144256822
sVwatt
p3842
F1.7763151468
sVwith
p3843
F-1.5186699304
sVpsu
p3844
F0.48489347234760222
sg74
F-1.8330482808399999
sVnone
p3845
F-0.87010417925600003
sVof
p3846
F-2.6791614926288556
sVquiet
p3847
F-0.21506953948800001
sVamount
p3848
F1.46871776465
sVcan
p3849
F-0.68468083236599997
sVthe
p3850
F-1.8756856769300001
sVwhere
p3851
F1.14643016302
ssI106
(dp3852
Vand
p3853
F-3.7805243037516325
sVdidn
p3854
F0.52191148884799998
sVve
p3855
F0.243286703508
sVmotherboard
p3856
F-0.210876661228
sVreplac
p3857
F0.12854108562300001
sVit
p3858
F-1.75476714038
sVpackag
p3859
F1.3644846448300001
sVinstruct
p3860
F1.7240644564600001
sVar
p3861
F-0.78627363122299998
sVsuppli
p3862
F0.40353826225998524
sVinstal
p3863
F-0.51703200520899995
sVsize
p3864
F0.99519919329499995
sVscrew
p3865
F0.689263680534
sVthei
p3866
F-0.45727707470700002
sVmount
p3867
F0.47286114515299998
sVto
p3868
F-3.0106811359245844
sVother
p3869
F-0.316919717012
sVlot
p3870
F0.19959043177300001
sVsure
p3871
F0.50888198855699995
sVclear
p3872
F1.97954338841
sVproperli
p3873
F3.60868822956536
sVpower
p3874
F-0.50965762674799997
sVthermaltak
p3875
F1.9291895022700001
sVbut
p3876
F-1.2736658197599999
sVbefor
p3877
F0.64627349560199998
sVnot
p3878
F-2.6138436325287406
sVwith
p3879
F-1.5186699304
sVwhy
p3880
F1.2427612719600001
sVrequir
p3881
F1.3369484870199999
sVbuilt
p3882
F0.82464247808000002
sg74
F-1.8330482808399999
sVon
p3883
F-2.6084354515797172
sVmodular
p3884
F1.2139663700100001
sg20
F-1.77727987381
sVof
p3885
F-1.58235593656
sVcould
p3886
F0.15696483906100001
sVwork
p3887
F-2.1788723204068279
sVwell
p3888
F-0.56514195612031892
sVus
p3889
F-0.85090446715400003
sVturn
p3890
F0.95227414857799997
sg52
F-1.10765043928
sVthi
p3891
F-1.52757773055
sVwere
p3892
F0.433080275141
sVthink
p3893
F0.45328298245900001
ssI107
(dp3894
Vcontinu
p3895
F2.4063616209899998
sVintern
p3896
F2.1204797290399999
sVsuppli
p3897
F0.23833619834899999
sVfrom
p3898
F-0.535043605373
sVno
p3899
F-0.86192082753199994
sVto
p3900
F-1.7781567783900001
sVawai
p3901
F1.2609023590299999
sVcool
p3902
F-0.36217212835599999
sVpower
p3903
F-0.50965762674799997
sVdi
p3904
F1.5946323635799999
sVfar
p3905
F0.16458102210600001
sVnone
p3906
F-0.87010417925600003
sVit
p3907
F-1.75476714038
sVfan
p3908
F-0.99531526199700004
sVdai
p3909
F0.61580191195599998
sVstai
p3910
F1.35438354884
sVabout
p3911
F-0.23628637675299999
sVof
p3912
F-1.58235593656
sV30
p3913
F1.5001938967499999
sVus
p3914
F-0.85090446715400003
sVkeep
p3915
F0.35426909471700002
sVthi
p3916
F-1.52757773055
sVmodel
p3917
F1.68834637385
ssI108
(dp3918
Vall
p3919
F-0.724115337626
sVfiness
p3920
F5.9545411929999998
sVsuper
p3921
F2.8645702170161131
sVextra
p3922
F0.96751576454599997
sVqualiti
p3923
F0.437088296539
sVanywher
p3924
F2.9219949463299999
sVhigh
p3925
F0.35334530712200002
sVdone
p3926
F1.5882629153000001
sVin
p3927
F-2.4025589874834892
sVship
p3928
F0.71279417794400002
sVegg
p3929
F0.64999327670499996
sV24
p3930
F1.5296945611499999
sVwire
p3931
F2.493367260980532
sVwith
p3932
F-2.5713317108579283
sVwhen
p3933
F-0.41493161598
sVlong
p3934
F1.2568680637204237
sVto
p3935
F-1.7781567783900001
sg10
F-0.54486983712000003
sVton
p3936
F1.9291895022700001
sVtake
p3937
F0.54289514114799997
sVneaten
p3938
F7.3408355541199999
sVgot
p3939
F0.072612532963700002
sVsome
p3940
F-0.14521706374000001
sVreach
p3941
F2.0032974744200001
sVdai
p3942
F0.61580191195599998
sVhere
p3943
F1.27705034544
sVfree
p3944
F1.41390952815
sVnew
p3945
F0.17148553745299999
sVcome
p3946
F0.15772385238
sVcase
p3947
F-0.88894219595900004
sVlike
p3948
F-0.49038466048099999
sVof
p3949
F-1.58235593656
sVup
p3950
F-0.62679118521099997
sVur
p3951
F4.3963965749599998
sVwill
p3952
F-0.44861901196300003
sVrock
p3953
F1.96093820058
sVthe
p3954
F-3.1758119155107023
sVmy
p3955
F-1.3701135717099999
ssI109
(dp3956
Vand
p3957
F-1.80144008694
sVall
p3958
F-0.724115337626
sVcabl
p3959
F0.083127876963199995
sVhard
p3960
F0.34965866700199999
sVan
p3961
F-0.67383081634200004
sVoverclock
p3962
F0.228508109412
sVhighli
p3963
F2.0276295750800002
sV6970
p3964
F3.3335023688900001
sVno
p3965
F-0.86192082753199994
sVtwo
p3966
F0.20993672382699999
sV1090t
p3967
F3.2137011690800001
sg526
F0.072919229470234909
sVrecommend
p3968
F0.77416312432000001
sVcomplet
p3969
F1.5631832309
sVpower
p3970
F-0.50965762674799997
sVabout
p3971
F-0.23628637675299999
sVmodular
p3972
F2.0554237366770232
sVfan
p3973
F-0.99531526199700004
sVnot
p3974
F-1.2455104959800001
sVwith
p3975
F-1.5186699304
sVcase
p3976
F-0.88894219595900004
sVgreat
p3977
F-0.82906709323600003
sVsemi
p3978
F3.7299176414800002
sVstiff
p3979
F3.8750996513199998
sVwork
p3980
F-1.0382443351599999
sVdrive
p3981
F-0.13280155437300001
sg85
F-0.95845035277400004
sVproblem
p3982
F-0.26405892668800002
sVat
p3983
F-0.91421334862900006
ssI110
(dp3984
Vand
p3985
F-1.80144008694
sVeffici
p3986
F2.02271556028
sVmobo
p3987
F0.46353948262599998
sVgo
p3988
F-0.16300519257599999
sVas
p3989
F-0.78833944278900003
sVfail
p3990
F1.2609023590299999
sVrig
p3991
F1.48576363192
sVbest
p3992
F0.772757642711
sVonli
p3993
F-0.436538048535
sVfor
p3994
F-1.61667495617
sVinvert
p3995
F5.2613940124400003
sVstart
p3996
F0.88721055523100001
sVbuild
p3997
F-0.027504132188100001
sVgood
p3998
F-0.71812446364600002
sVplenti
p3999
F0.96581073429499997
sVnada
p4000
F4.0827390160999997
sVnever
p4001
F0.40741252839300002
sVgame
p4002
F0.20993672382699999
sVcompani
p4003
F1.7573392453400001
sVha
p4004
F-0.45316353538100002
sVwith
p4005
F-1.5186699304
sVsinc
p4006
F0.57695064556099995
sVpsu
p4007
F0.28638589598999997
sVme
p4008
F-0.31974990757999999
sVlook
p4009
F-0.45645571942399998
sg20
F-3.009196407407337
sVwell
p4010
F-0.33378194324100002
sVbf3
p4011
F2.1590520038299998
sVlength
p4012
F2.4504864258999999
sVthi
p4013
F-1.52757773055
sVthe
p4014
F-1.8756856769300001
ssI111
(dp4015
Voper
p4016
F2.0276295750800002
sVand
p4017
F-1.80144008694
sVextra
p4018
F0.96751576454599997
sVprocess
p4019
F1.76488645098
sVdure
p4020
F1.88551443877
sVwithin
p4021
F1.8314472175000001
sVit
p4022
F-2.9710790362736348
sV10
p4023
F1.00224147592
sVcross
p4024
F3.4696345432200002
sVpast
p4025
F1.2427612719600001
sVrma
p4026
F0.64875181161700002
sVin
p4027
F-1.4189900411900001
sVhorribl
p4028
F2.64035518833
sVship
p4029
F1.2068654527054277
sVmake
p4030
F-0.20613856339299999
sVps
p4031
F4.7811435541220986
sVwhat
p4032
F-0.135636827041
sVfit
p4033
F0.107380135502
sVno
p4034
F-0.86192082753199994
sVanoth
p4035
F0.42809273363
sVbegan
p4036
F4.1219597292600003
sVhad
p4037
F-0.75811119482
sVtwo
p4038
F0.20993672382699999
sVbeen
p4039
F0.081719426026199998
sVthrow
p4040
F2.3850084965199998
sVfew
p4041
F0.69314718056000002
sVother
p4042
F-0.316919717012
sVdetermin
p4043
F3.8443279926599998
sVawai
p4044
F1.2609023590299999
sVexperi
p4045
F1.6848437433000001
sVsmell
p4046
F3.53417306435
sVis
p4047
F-2.5321665860981173
sVmore
p4048
F-0.70616200230043003
sVweek
p4049
F1.1142988848399999
sVapplic
p4050
F2.26566173889
sVhard
p4051
F0.34965866700199999
sVreturn
p4052
F1.4006643014
sVto
p4053
F-1.7781567783900001
sVoffer
p4054
F2.0325678567200001
sVburn
p4055
F2.1258997965100002
sVdai
p4056
F0.61580191195599998
sVfree
p4057
F1.41390952815
sVbase
p4058
F1.9071135505700001
sVfan
p4059
F-0.99531526199700004
sVif
p4060
F-0.78833944278900003
sVreview
p4061
F0.53733029651499997
sVnot
p4062
F-1.2455104959800001
sVwith
p4063
F-1.5186699304
sVthan
p4064
F-0.31550161230700002
sVcool
p4065
F-0.36217212835599999
sg74
F-1.8330482808399999
sVon
p4066
F-2.6084354515797172
sVessenti
p4067
F3.6031659358399999
sVof
p4068
F-3.3207516135117521
sVworth
p4069
F1.0548374596100001
sV50
p4070
F1.57251455833
sVspend
p4071
F1.83550401819
sVitem
p4072
F3.1216001396990003
sVcost
p4073
F2.0928015720560555
sVobvious
p4074
F2.7257150372800001
sVthi
p4075
F-1.52757773055
sVthe
p4076
F-5.2364632498647623
sVmy
p4077
F-1.3701135717099999
sVor
p4078
F-0.7797886969779747
sVhowl
p4079
F5.9545411929999998
sVfirst
p4080
F0.064279151404599999
ssI112
(dp4081
Vand
p4082
F-1.80144008694
sVit
p4083
F-1.75476714038
sVmonth
p4084
F0.55637849148600005
sVvideo
p4085
F0.39385956198799998
sVmonei
p4086
F1.0492664145599999
sVid
p4087
F2.2168715747199998
sVout
p4088
F-1.0322557601142774
sVonli
p4089
F-0.9161241131267468
sVcrap
p4090
F4.7758861966600001
sVbuilt
p4091
F0.82464247808000002
sVcoupl
p4092
F1.63705307947
sVsata
p4093
F0.44111244683799999
sVperfectli
p4094
F1.3798302145000001
sVwhen
p4095
F-0.41493161598
sVsystem
p4096
F0.0019474202843999999
sVconnector
p4097
F0.71015216848100005
sVto
p4098
F-1.7781567783900001
sVenough
p4099
F0.44111244683799999
sVsingl
p4100
F1.4630997723400001
sVjuic
p4101
F3.7299176414800002
sVpower
p4102
F-0.50965762674799997
sVafter
p4103
F-0.0910563626845
sVwast
p4104
F2.2974104371999999
sVput
p4105
F0.35334530712200002
sVnow
p4106
F-0.0122463663922
sVcard
p4107
F-0.31408149372499999
sg74
F-3.1036205285345009
sVon
p4108
F-1.54058399738
sVfit
p4109
F0.107380135502
sg20
F-1.77727987381
sVof
p4110
F-1.58235593656
sVbudget
p4111
F1.6238078527199999
sVhdd
p4112
F1.06043971516
sVmy
p4113
F-2.8753371784615616
ssI113
(dp4114
Vnone
p4115
F-0.87010417925600003
sVgood
p4116
F-0.71812446364600002
sVcabl
p4117
F0.083127876963199995
sVplenti
p4118
F0.96581073429499997
sVof
p4119
F-1.58235593656
sVprice
p4120
F-0.52741871139700003
sVquiet
p4121
F-0.21506953948800001
sVmodular
p4122
F1.2139663700100001
sVdesign
p4123
F0.64751188585300001
ssI114
(dp4124
Vall
p4125
F-0.724115337626
sVshow
p4126
F1.4972911370899999
sVbecaus
p4127
F0.099469270801000001
sVfind
p4128
F1.0111146486
sVbetter
p4129
F0.25660913202500002
sVto
p4130
F-3.0106811359245844
sVdo
p4131
F-0.21402296691700001
sVgood
p4132
F-0.71812446364600002
sVget
p4133
F-0.72348640678800002
sVread
p4134
F1.6381465888883597
sVenermax
p4135
F5.7719555369192914
sVscour
p4136
F6.2422232654599998
sVnot
p4137
F-1.2455104959800001
sVpsu
p4138
F0.28638589598999997
sVdid
p4139
F0.31796746804100001
sVeasili
p4140
F1.2031085000399999
sVstuff
p4141
F1.73871673324
sg52
F-1.10765043928
sVrock
p4142
F1.96093820058
sVcabl
p4143
F0.083127876963199995
sVimpecc
p4144
F7.3408355541199999
sVsee
p4145
F0.39289848550799999
sVwhat
p4146
F-0.22965311128456611
sVwa
p4147
F-1.734017085640513
sVfor
p4148
F-3.3927739298003403
sVitem
p4149
F1.8436673288300001
sVreview
p4150
F0.53733029651499997
sVnet
p4151
F3.6772739079900001
sVbe
p4152
F-1.9327151517837009
sVpower
p4153
F-0.86292537377924916
sVmodular
p4154
F1.2139663700100001
sVreason
p4155
F1.0004762504
sVbeliev
p4156
F2.2782405210999999
sVstrong
p4157
F2.3235557173100001
sVmodu87
p4158
F5.5490760849000003
sVon
p4159
F-1.54058399738
sVprotect
p4160
F3.26329811022
sVcouldn
p4161
F1.6107357711500001
sVof
p4162
F-4.6614784129300295
sV30
p4163
F1.5001938967499999
sVor
p4164
F-0.46055576616799998
sVcon
p4165
F0.71809923017300004
sVown
p4166
F1.06043971516
sVqualiti
p4167
F0.74005481694075714
sVupgrad
p4168
F0.78122031663000002
sVsuppli
p4169
F0.40353826225998524
sVtotal
p4170
F1.83550401819
sVwould
p4171
F-0.48480917809700003
sVsystem
p4172
F0.0019474202843999999
sVtheir
p4173
F0.70488899843700004
sVinclud
p4174
F0.69574458461800004
sVis
p4175
F-2.5321665860981173
sVflaw
p4176
F3.4090099214
sVthat
p4177
F-2.0910432573675259
sVbut
p4178
F-1.2736658197599999
sVbui
p4179
F-0.170689094268
sVha
p4180
F-0.45316353538100002
sVlepa
p4181
F10.081914632456003
sVme
p4182
F-0.54138365450338011
sVhwmonitor
p4183
F5.9545411929999998
sVlook
p4184
F-0.45645571942399998
sVhour
p4185
F1.4059413585
sVhous
p4186
F2.52865119875
sVsolid
p4187
F0.82021442656499999
sVup
p4188
F-0.62679118521099997
sVmatter
p4189
F2.1313494012800001
sVcan
p4190
F-0.68468083236599997
sVabov
p4191
F1.74984857361
sVmy
p4192
F-2.3198039309877028
sVand
p4193
F-4.7007460598398181
sVacclaim
p4194
F6.6476883735600003
sVpro
p4195
F1.3053541216
sVit
p4196
F-5.1693863280742116
sVan
p4197
F-1.4141096316585855
sVpackag
p4198
F1.3644846448300001
sVcritic
p4199
F4.5076222100700001
sVin
p4200
F-2.4025589874834892
sVattract
p4201
F3.0781556770799998
sVas
p4202
F-0.78833944278900003
sVif
p4203
F-0.78833944278900003
sVno
p4204
F-1.4593588190017006
sVmake
p4205
F-0.20613856339299999
sVsame
p4206
F0.55073831860900002
sVfar
p4207
F0.16458102210600001
sVpai
p4208
F1.29346337508
sVyou
p4209
F-2.1629095361659982
sVweek
p4210
F1.1142988848399999
sVclone
p4211
F5.2613940124400003
sVchoos
p4212
F3.0233474405899998
sVbefor
p4213
F1.0942361469491466
sVmai
p4214
F0.95732891923899999
sg74
F-3.1036205285345009
sg20
F-5.2357068179686257
sVso
p4215
F-1.9590995922309189
sVexpens
p4216
F1.5850933405400001
sVthi
p4217
F-2.5864139275668925
sVsturdi
p4218
F2.06272089489
sVthe
p4219
F-5.7760643926721063
sVsometh
p4220
F0.914347096666
sVfact
p4221
F1.9426728526099999
sVknow
p4222
F1.0975846836638152
ssI115
(dp4223
Vand
p4224
F-1.80144008694
sVon
p4225
F-1.54058399738
sVnone
p4226
F-0.87010417925600003
sVgood
p4227
F-0.71812446364600002
sVeasi
p4228
F-0.026241505757699998
sVwa
p4229
F-1.02413842432
sVthat
p4230
F-1.2350038327299999
sVcooler
p4231
F0.058074374517699999
sVcool
p4232
F-0.36217212835599999
sV1100t
p4233
F3.3518515075600002
sVamd
p4234
F0.69185100409800004
sVus
p4235
F-0.85090446715400003
sg20
F-1.77727987381
sVtoo
p4236
F0.25493408975800003
sVinstal
p4237
F-0.51703200520899995
sVeveryth
p4238
F0.25828698476799999
sVnice
p4239
F-0.29639883466599998
sVmy
p4240
F-1.3701135717099999
sVprocessor
p4241
F0.89194615997600002
sVinexpens
p4242
F1.970197526
sVstai
p4243
F1.35438354884
ssI116
(dp4244
Vand
p4245
F-4.2987663213602483
sVwould
p4246
F-0.82085329300452003
sVsck
p4247
F7.3408355541199999
sV200
p4248
F2.64035518833
sVram
p4249
F-0.0058196090532599996
sVit
p4250
F-3.6825758845524668
sVson
p4251
F3.7854874926300002
sVfix
p4252
F1.41657975671
sVattornei
p4253
F7.3408355541199999
sVneweg
p4254
F7.3408355541199999
sVhave
p4255
F-1.2300879597100001
sVnewegg
p4256
F0.22444141003000001
sVstill
p4257
F0.090910017405299998
sVsuck
p4258
F2.4580336315400002
sVthese
p4259
F0.021633095355399999
sVonli
p4260
F-0.436538048535
sVfrom
p4261
F-0.90590757191392302
sVthank
p4262
F1.8770037491
sVfor
p4263
F-2.7372686439211087
sVmorn
p4264
F4.2963131164000004
sVreceiv
p4265
F1.48863307435
sVll
p4266
F0.88093109974600003
sVthat
p4267
F-2.0910432573675259
sVhad
p4268
F-0.75811119482
sVbeen
p4269
F0.081719426026199998
sVstuck
p4270
F2.49664846766
sg280
F-0.53047564920000001
sVother
p4271
F-0.316919717012
sg526
F0.043067271591899998
sVbuild
p4272
F-0.027504132188100001
sVget
p4273
F-0.72348640678800002
sVhire
p4274
F5.5490760849000003
sVdisappoint
p4275
F1.8643720021900001
sVyou
p4276
F-1.7450217949928502
sVbill
p4277
F3.3335023688900001
sg74
F-1.8330482808399999
sVbirthdai
p4278
F5.9545411929999998
sVan
p4279
F-0.67383081634200004
sVto
p4280
F-1.7781567783900001
sVwa
p4281
F-1.734017085640513
sVagain
p4282
F0.689263680534
sVnever
p4283
F0.68980937377340668
sVthei
p4284
F-0.45727707470700002
sVguess
p4285
F1.47720437853
sVbut
p4286
F-1.2736658197599999
sVpart
p4287
F1.5841205168600476
sVno
p4288
F-0.86192082753199994
sVpai
p4289
F1.29346337508
sVdidnt
p4290
F2.3368892481799999
sValong
p4291
F2.0885621260799998
sVmonth
p4292
F0.55637849148600005
sVwith
p4293
F-2.5713317108579283
sVhavent
p4294
F3.3895918355400001
sVlike
p4295
F-0.49038466048099999
sVme
p4296
F-0.54138365450338011
sVabout
p4297
F-0.23628637675299999
sVmade
p4298
F0.79261645136100001
sVlook
p4299
F-0.45645571942399998
sg20
F-4.6377014837259081
sVof
p4300
F-1.58235593656
sVwork
p4301
F-1.0382443351599999
sVresolv
p4302
F3.53417306435
sVthink
p4303
F0.45328298245900001
sVthing
p4304
F0.12559557539300001
sVhi
p4305
F2.1875439596300001
sVplace
p4306
F1.2052706630400001
sVcan
p4307
F-0.68468083236599997
sVthi
p4308
F-3.6452501245837849
sVnewgg
p4309
F6.2422232654599998
sVthe
p4310
F-3.1758119155107023
sVmy
p4311
F-1.3701135717099999
sVorder
p4312
F1.4704801412755837
ssI117
(dp4313
g74
F-1.8330482808399999
sVwa
p4314
F-1.02413842432
sVsome
p4315
F-0.14521706374000001
sVpast
p4316
F1.2427612719600001
sVthermal
p4317
F1.6848437433000001
sVwhich
p4318
F0.049860775980299997
sVsurpris
p4319
F2.1258997965100002
sVwith
p4320
F-1.5186699304
sVnoth
p4321
F0.82021442656499999
sVcame
p4322
F0.73689172952299997
sVnice
p4323
F-0.29639883466599998
ssI118
(dp4324
Vjob
p4325
F1.2360423217100001
sVnone
p4326
F-0.87010417925600003
sVthe
p4327
F-1.8756856769300001
sVdoe
p4328
F0.15242281762599999
ssI119
(dp4329
Vnone
p4330
F-0.87010417925600003
sVwell
p4331
F-0.33378194324100002
sVall
p4332
F-0.724115337626
sVdoe
p4333
F0.15242281762599999
sVjob
p4334
F1.2360423217100001
sVat
p4335
F-0.91421334862900006
sVthe
p4336
F-1.8756856769300001
ssI120
(dp4337
Vall
p4338
F-0.724115337626
sVjust
p4339
F-0.64838585469200005
sVhad
p4340
F-0.75811119482
sVcelsiu
p4341
F3.3705436405700002
sVit
p4342
F-1.75476714038
sVrealli
p4343
F-0.17014219789099999
sVdown
p4344
F0.46147974966299998
sVmai
p4345
F0.95732891923899999
sVinstruct
p4346
F1.7240644564600001
sVhave
p4347
F-1.2300879597100001
sVinstal
p4348
F-0.51703200520899995
sVtotal
p4349
F1.83550401819
sVfine
p4350
F0.45124424576900002
sVaround
p4351
F0.60149892676600003
sVcorrectli
p4352
F2.52865119875
sVno
p4353
F-0.86192082753199994
sVwhen
p4354
F-0.41493161598
sVpc
p4355
F0.66249343946899997
sVuseless
p4356
F2.4810231497599999
sVwhich
p4357
F0.049860775980299997
sVsize
p4358
F0.99519919329499995
sVstart
p4359
F0.88721055523100001
sVstock
p4360
F0.430084766161
sVto
p4361
F-3.0106811359245844
sVwa
p4362
F-1.734017085640513
sVbut
p4363
F-1.2736658197599999
sV98
p4364
F4.2497931007599998
sVfan
p4365
F-0.99531526199700004
sVnot
p4366
F-1.2455104959800001
sVspin
p4367
F2.2532392188900001
sVclimb
p4368
F5.0382504611299996
sVreinstal
p4369
F3.3705436405700002
sVon
p4370
F-1.54058399738
sVheatsink
p4371
F1.3876787681845815
sVwai
p4372
F0.46250908583200001
sVtemp
p4373
F1.0446770816839899
sg20
F-3.7298213835801737
sVloud
p4374
F0.82909022447900005
sVup
p4375
F-0.62679118521099997
sVkeep
p4376
F0.35426909471700002
sVturn
p4377
F0.95227414857799997
sVdegre
p4378
F2.6310460359730672
sVbracket
p4379
F1.69892848319
sVthi
p4380
F-1.52757773055
sV48
p4381
F3.5121941576300002
sVthe
p4382
F-4.4759381540914047
sVmy
p4383
F-2.8753371784615616
sVcpu
p4384
F-0.31455509070299997
ssI121
(dp4385
Vload
p4386
F0.94394708319367338
sVregret
p4387
F3.1361429347300001
sVbe
p4388
F-0.92094912539100005
sVhard
p4389
F0.34965866700199999
sVthem
p4390
F-0.016082688232699999
sVhear
p4391
F1.57251455833
sVat
p4392
F-1.5478977536614578
sVin
p4393
F-1.4189900411900001
sVneed
p4394
F-0.30168858010999999
sVinstal
p4395
F-0.51703200520899995
sVstill
p4396
F0.090910017405299998
sVprobabl
p4397
F1.07553434139
sVeven
p4398
F-0.105749545034
sVbetter
p4399
F0.25660913202500002
sVwa
p4400
F-1.02413842432
sVfor
p4401
F-1.61667495617
sVperform
p4402
F0.44111244683799999
sVanoth
p4403
F0.42809273363
sVhad
p4404
F-0.75811119482
sVdegre
p4405
F1.5539381727599999
sVthan
p4406
F-0.31550161230700002
sVcurrent
p4407
F1.4300389100799999
sVto
p4408
F-3.0106811359245844
sV180
p4409
F4.4504637962300002
sg10
F-0.54486983712000003
sVyou
p4410
F-1.0306379829400001
sVfactori
p4411
F2.78695866252
sV5ghz
p4412
F2.7457157039900002
sVthen
p4413
F0.228508109412
sVlife
p4414
F2.1933410773099999
sVfull
p4415
F0.68282450825300001
sVrun
p4416
F-0.63918803818699998
sVthei
p4417
F-0.95964728830631563
sVon
p4418
F-1.54058399738
sVweak
p4419
F2.9841267274300001
sVbut
p4420
F-1.2736658197599999
sVnoisi
p4421
F1.9889774206499999
sVfan
p4422
F-2.0887808399258239
sg74
F-1.8330482808399999
sVput
p4423
F0.35334530712200002
sVwith
p4424
F-1.5186699304
sVthe
p4425
F-1.8756856769300001
sVme
p4426
F-0.31974990757999999
sVe5420
p4427
F6.6476883735600003
sVmade
p4428
F0.79261645136100001
sVroom
p4429
F0.66880260866200003
sVf
p4430
F2.8981842976299999
sg20
F-3.009196407407337
sVof
p4431
F-1.58235593656
sVwork
p4432
F-1.0382443351599999
sVrack
p4433
F3.7299176414800002
sVxeon
p4434
F3.1819524707600002
sVso
p4435
F-0.93352145263300002
sVhope
p4436
F1.3928005649399999
sVthi
p4437
F-1.52757773055
sVwere
p4438
F0.433080275141
sVokai
p4439
F3.2299616899500001
sVchang
p4440
F1.31015029386
sVor
p4441
F-0.46055576616799998
ssI122
(dp4442
Vand
p4443
F-1.80144008694
sVold
p4444
F0.54512977895000003
sVpin
p4445
F0.80414395653199999
sVhitch
p4446
F3.3335023688900001
sVbackplan
p4447
F4.7758861966600001
sVin
p4448
F-1.4189900411900001
sVgo
p4449
F-0.16300519257599999
sVinstal
p4450
F-0.51703200520899995
sVhappen
p4451
F1.6848437433000001
sVscrew
p4452
F0.689263680534
sVfor
p4453
F-1.61667495617
sVplastic
p4454
F1.5237243941600001
sVto
p4455
F-1.7781567783900001
sVwithout
p4456
F0.48753646093699998
sVbought
p4457
F-0.0462546815335
sVwa
p4458
F-1.02413842432
sVthat
p4459
F-1.2350038327299999
sVheat
p4460
F0.66375209287600001
sVfan
p4461
F-0.99531526199700004
sVsink
p4462
F1.5570103717899999
sg74
F-3.1036205285345009
sVmount
p4463
F0.47286114515299998
sVserver
p4464
F1.6813533383599999
sVbad
p4465
F0.58042086303999996
sVclient
p4466
F3.5121941576300002
sVwhatev
p4467
F2.84102588379
sVdang
p4468
F4.5076222100700001
ss.